Component: ARM Compiler 5.06 update 6 (build 750) Tool: armlink [4d35ed]

==============================================================================

Section Cross References

    main.o(i.main) refers to rt_cmsis.o(i.osKernelInitialize) for osKernelInitialize
    main.o(i.main) refers to timer.o(i.TimerInit) for TimerInit
    main.o(i.main) refers to print_server.o(i.PrintServerInit) for PrintServerInit
    main.o(i.main) refers to rt_cmsis.o(i.osDelay) for osDelay
    main.o(i.main) refers to mpu6050.o(i.twi_init_mpu6050) for twi_init_mpu6050
    main.o(i.main) refers to mpu6050.o(i.PWM_init) for PWM_init
    main.o(i.main) refers to mpu6050.o(i.mpu_6050_init) for mpu_6050_init
    main.o(i.main) refers to curr_saadc.o(i.SAADC_INIT) for SAADC_INIT
    main.o(i.main) refers to spi.o(i.SpisInit) for SpisInit
    main.o(i.main) refers to rt_cmsis.o(i.osKernelStart) for osKernelStart
    print_server.o(i.PrintServer) refers to rt_cmsis.o(i.osMailGet) for osMailGet
    print_server.o(i.PrintServer) refers to strlen.o(.text) for strlen
    print_server.o(i.PrintServer) refers to nrfx_uart.o(i.nrfx_uart_tx) for nrfx_uart_tx
    print_server.o(i.PrintServer) refers to rt_cmsis.o(i.osMailFree) for osMailFree
    print_server.o(i.PrintServer) refers to print_server.o(.data) for mail_box_id
    print_server.o(i.PrintServerInit) refers to rt_cmsis.o(i.osMailCreate) for osMailCreate
    print_server.o(i.PrintServerInit) refers to rt_cmsis.o(i.osThreadCreate) for osThreadCreate
    print_server.o(i.PrintServerInit) refers to memcpya.o(.text) for __aeabi_memcpy4
    print_server.o(i.PrintServerInit) refers to nrfx_uart.o(i.nrfx_uart_init) for nrfx_uart_init
    print_server.o(i.PrintServerInit) refers to print_server.o(.constdata) for os_mailQ_def_mail_queue
    print_server.o(i.PrintServerInit) refers to print_server.o(.data) for mail_box_id
    print_server.o(i.PrintServerPrintf) refers to rt_cmsis.o(i.osMailAlloc) for osMailAlloc
    print_server.o(i.PrintServerPrintf) refers to printfa.o(i.__0vsnprintf) for vsnprintf
    print_server.o(i.PrintServerPrintf) refers to rt_cmsis.o(i.osMailPut) for osMailPut
    print_server.o(i.PrintServerPrintf) refers to print_server.o(.data) for mail_box_id
    print_server.o(.constdata) refers to print_server.o(.data) for os_mailQ_p_mail_queue
    print_server.o(.constdata) refers to print_server.o(i.PrintServer) for PrintServer
    print_server.o(.data) refers to print_server.o(.bss) for os_mailQ_q_mail_queue
    mpu6050.o(i.Mpu_6050_thread) refers to timer.o(i.TimerSecondsMicrosec) for TimerSecondsMicrosec
    mpu6050.o(i.Mpu_6050_thread) refers to timer.o(i.TimerIntervalMicrosec) for TimerIntervalMicrosec
    mpu6050.o(i.Mpu_6050_thread) refers to f2d.o(.text) for __aeabi_f2d
    mpu6050.o(i.Mpu_6050_thread) refers to print_server.o(i.PrintServerPrintf) for PrintServerPrintf
    mpu6050.o(i.Mpu_6050_thread) refers to mpu6050.o(i.mpu_6050_read_gyro) for mpu_6050_read_gyro
    mpu6050.o(i.Mpu_6050_thread) refers to sin.o(i.__hardfp_sin) for __hardfp_sin
    mpu6050.o(i.Mpu_6050_thread) refers to dmul.o(.text) for __aeabi_dmul
    mpu6050.o(i.Mpu_6050_thread) refers to dadd.o(.text) for __aeabi_dadd
    mpu6050.o(i.Mpu_6050_thread) refers to d2f.o(.text) for __aeabi_d2f
    mpu6050.o(i.Mpu_6050_thread) refers to mpu6050.o(i.mpu_6050_read_acc) for mpu_6050_read_acc
    mpu6050.o(i.Mpu_6050_thread) refers to asin.o(i.__hardfp_asin) for __hardfp_asin
    mpu6050.o(i.Mpu_6050_thread) refers to rt_cmsis.o(i.osMailAlloc) for osMailAlloc
    mpu6050.o(i.Mpu_6050_thread) refers to rt_cmsis.o(i.osMailPut) for osMailPut
    mpu6050.o(i.Mpu_6050_thread) refers to rt_cmsis.o(i.osDelay) for osDelay
    mpu6050.o(i.Mpu_6050_thread) refers to mpu6050.o(.data) for MPU_PID_mail_id
    mpu6050.o(i.PID_control) refers to arm_pid_init_f32.o(.text.arm_pid_init_f32) for arm_pid_init_f32
    mpu6050.o(i.PID_control) refers to rt_cmsis.o(i.osSignalWait) for osSignalWait
    mpu6050.o(i.PID_control) refers to rt_cmsis.o(i.osMailGet) for osMailGet
    mpu6050.o(i.PID_control) refers to rt_cmsis.o(i.osMailFree) for osMailFree
    mpu6050.o(i.PID_control) refers to rt_cmsis.o(i.osMailAlloc) for osMailAlloc
    mpu6050.o(i.PID_control) refers to rt_cmsis.o(i.osMailPut) for osMailPut
    mpu6050.o(i.PID_control) refers to spi.o(.data) for SPIS_PID_mail_ID
    mpu6050.o(i.PID_control) refers to mpu6050.o(.data) for MPU_PID_mail_id
    mpu6050.o(i.PWM) refers to rt_cmsis.o(i.osMailGet) for osMailGet
    mpu6050.o(i.PWM) refers to rt_cmsis.o(i.osMailFree) for osMailFree
    mpu6050.o(i.PWM) refers to rt_cmsis.o(i.osMailAlloc) for osMailAlloc
    mpu6050.o(i.PWM) refers to rt_cmsis.o(i.osMailPut) for osMailPut
    mpu6050.o(i.PWM) refers to mpu6050.o(.data) for MPU_PWM_mail_id
    mpu6050.o(i.PWM_init) refers to nrfx_pwm.o(i.nrfx_pwm_init) for nrfx_pwm_init
    mpu6050.o(i.PWM_init) refers to nrfx_pwm.o(i.nrfx_pwm_simple_playback) for nrfx_pwm_simple_playback
    mpu6050.o(i.PWM_init) refers to mpu6050.o(.constdata) for .constdata
    mpu6050.o(i.PWM_init) refers to mpu6050.o(.data) for m_pwm0
    mpu6050.o(i.calculate_IMU_error) refers to mpu6050.o(i.mpu_6050_I2C_register_read) for mpu_6050_I2C_register_read
    mpu6050.o(i.calculate_IMU_error) refers to dflti.o(.text) for __aeabi_i2d
    mpu6050.o(i.calculate_IMU_error) refers to ddiv.o(.text) for __aeabi_ddiv
    mpu6050.o(i.calculate_IMU_error) refers to dfixi.o(.text) for __aeabi_d2iz
    mpu6050.o(i.calculate_IMU_error) refers to mpu6050.o(.data) for Acc_error_x
    mpu6050.o(i.mpu_6050_I2C_register_read) refers to mpu6050.o(i.nrf_drv_twi_tx) for nrf_drv_twi_tx
    mpu6050.o(i.mpu_6050_I2C_register_read) refers to nrfx_twi.o(i.nrfx_twi_rx) for nrfx_twi_rx
    mpu6050.o(i.mpu_6050_I2C_register_read) refers to mpu6050.o(.constdata) for m_twi_mpu_6050
    mpu6050.o(i.mpu_6050_I2C_register_write) refers to malloc.o(i.malloc) for malloc
    mpu6050.o(i.mpu_6050_I2C_register_write) refers to mpu6050.o(i.nrf_drv_twi_tx) for nrf_drv_twi_tx
    mpu6050.o(i.mpu_6050_I2C_register_write) refers to malloc.o(i.free) for free
    mpu6050.o(i.mpu_6050_I2C_register_write) refers to mpu6050.o(.constdata) for m_twi_mpu_6050
    mpu6050.o(i.mpu_6050_init) refers to mpu6050.o(i.nrf_drv_twi_tx) for nrf_drv_twi_tx
    mpu6050.o(i.mpu_6050_init) refers to rt_cmsis.o(i.osDelay) for osDelay
    mpu6050.o(i.mpu_6050_init) refers to rt_cmsis.o(i.osMailCreate) for osMailCreate
    mpu6050.o(i.mpu_6050_init) refers to rt_cmsis.o(i.osThreadCreate) for osThreadCreate
    mpu6050.o(i.mpu_6050_init) refers to mpu6050.o(.constdata) for m_twi_mpu_6050
    mpu6050.o(i.mpu_6050_init) refers to mpu6050.o(.data) for PID_PWM_mail_id
    mpu6050.o(i.mpu_6050_read_acc) refers to mpu6050.o(i.mpu_6050_I2C_register_read) for mpu_6050_I2C_register_read
    mpu6050.o(i.mpu_6050_read_acc) refers to mpu6050.o(.data) for Acc_error_x
    mpu6050.o(i.mpu_6050_read_gyro) refers to mpu6050.o(i.mpu_6050_I2C_register_read) for mpu_6050_I2C_register_read
    mpu6050.o(i.mpu_6050_read_gyro) refers to mpu6050.o(.data) for Gyro_raw_error_x
    mpu6050.o(i.nrf_drv_twi_tx) refers to nrfx_twi.o(i.nrfx_twi_tx) for nrfx_twi_tx
    mpu6050.o(i.twi_init_mpu6050) refers to nrf_drv_twi.o(i.nrf_drv_twi_init) for nrf_drv_twi_init
    mpu6050.o(i.twi_init_mpu6050) refers to nrfx_twi.o(i.nrfx_twi_enable) for nrfx_twi_enable
    mpu6050.o(i.twi_init_mpu6050) refers to mpu6050.o(.constdata) for .constdata
    mpu6050.o(.constdata) refers to mpu6050.o(.data) for m_PWM_seq_values
    mpu6050.o(.constdata) refers to mpu6050.o(i.Mpu_6050_thread) for Mpu_6050_thread
    mpu6050.o(.constdata) refers to mpu6050.o(i.PID_control) for PID_control
    mpu6050.o(.constdata) refers to mpu6050.o(i.PWM) for PWM
    mpu6050.o(.data) refers to mpu6050.o(.bss) for os_mailQ_q_PID_PWM_mail_Q
    timer.o(i.TIMER1_IRQHandler) refers to timer.o(.data) for time_seconds
    timer.o(i.TimerInit) refers to timer.o(.data) for time_seconds
    timer.o(i.TimerMillisec) refers to app_util_platform.o(i.app_util_critical_region_enter) for app_util_critical_region_enter
    timer.o(i.TimerMillisec) refers to app_util_platform.o(i.app_util_critical_region_exit) for app_util_critical_region_exit
    timer.o(i.TimerMillisec) refers to timer.o(.data) for time_seconds
    timer.o(i.TimerSecondsMicrosec) refers to app_util_platform.o(i.app_util_critical_region_enter) for app_util_critical_region_enter
    timer.o(i.TimerSecondsMicrosec) refers to app_util_platform.o(i.app_util_critical_region_exit) for app_util_critical_region_exit
    timer.o(i.TimerSecondsMicrosec) refers to timer.o(.data) for time_seconds
    curr_saadc.o(i.SAADC_INIT) refers to curr_saadc.o(i.saadc_init) for saadc_init
    curr_saadc.o(i.SAADC_INIT) refers to curr_saadc.o(i.saadc_sampling_event_init) for saadc_sampling_event_init
    curr_saadc.o(i.SAADC_INIT) refers to curr_saadc.o(i.saadc_sampling_event_enable) for saadc_sampling_event_enable
    curr_saadc.o(i.Saadc_Callback) refers to nrfx_saadc.o(i.nrfx_saadc_buffer_convert) for nrfx_saadc_buffer_convert
    curr_saadc.o(i.Saadc_Callback) refers to rt_cmsis.o(i.osMailGet) for osMailGet
    curr_saadc.o(i.Saadc_Callback) refers to print_server.o(i.PrintServerPrintf) for PrintServerPrintf
    curr_saadc.o(i.Saadc_Callback) refers to rt_cmsis.o(i.osMailAlloc) for osMailAlloc
    curr_saadc.o(i.Saadc_Callback) refers to rt_cmsis.o(i.osMailFree) for osMailFree
    curr_saadc.o(i.Saadc_Callback) refers to rt_cmsis.o(i.osMailPut) for osMailPut
    curr_saadc.o(i.Saadc_Callback) refers to curr_saadc.o(.data) for var
    curr_saadc.o(i.Saadc_Callback) refers to mpu6050.o(.data) for PWM_CURRSAADC_mail_id
    curr_saadc.o(i.Saadc_Callback) refers to spi.o(.data) for spis_mail_ID
    curr_saadc.o(i.saadc_init) refers to nrfx_saadc.o(i.nrfx_saadc_init) for nrfx_saadc_init
    curr_saadc.o(i.saadc_init) refers to nrfx_saadc.o(i.nrfx_saadc_channel_init) for nrfx_saadc_channel_init
    curr_saadc.o(i.saadc_init) refers to nrfx_saadc.o(i.nrfx_saadc_buffer_convert) for nrfx_saadc_buffer_convert
    curr_saadc.o(i.saadc_init) refers to curr_saadc.o(.constdata) for .constdata
    curr_saadc.o(i.saadc_init) refers to curr_saadc.o(i.Saadc_Callback) for Saadc_Callback
    curr_saadc.o(i.saadc_init) refers to curr_saadc.o(.bss) for m_buffer_pool
    curr_saadc.o(i.saadc_sampling_event_enable) refers to nrfx_ppi.o(i.nrfx_ppi_channel_enable) for nrfx_ppi_channel_enable
    curr_saadc.o(i.saadc_sampling_event_enable) refers to curr_saadc.o(.data) for m_ppi_channel
    curr_saadc.o(i.saadc_sampling_event_init) refers to nrf_drv_ppi.o(i.nrf_drv_ppi_init) for nrf_drv_ppi_init
    curr_saadc.o(i.saadc_sampling_event_init) refers to nrfx_timer.o(i.nrfx_timer_init) for nrfx_timer_init
    curr_saadc.o(i.saadc_sampling_event_init) refers to llushr.o(.text) for __aeabi_llsr
    curr_saadc.o(i.saadc_sampling_event_init) refers to nrfx_timer.o(i.nrfx_timer_extended_compare) for nrfx_timer_extended_compare
    curr_saadc.o(i.saadc_sampling_event_init) refers to nrfx_timer.o(i.nrfx_timer_enable) for nrfx_timer_enable
    curr_saadc.o(i.saadc_sampling_event_init) refers to nrfx_saadc.o(i.nrfx_saadc_sample_task_get) for nrfx_saadc_sample_task_get
    curr_saadc.o(i.saadc_sampling_event_init) refers to nrfx_ppi.o(i.nrfx_ppi_channel_alloc) for nrfx_ppi_channel_alloc
    curr_saadc.o(i.saadc_sampling_event_init) refers to nrfx_ppi.o(i.nrfx_ppi_channel_assign) for nrfx_ppi_channel_assign
    curr_saadc.o(i.saadc_sampling_event_init) refers to curr_saadc.o(.constdata) for .constdata
    curr_saadc.o(i.saadc_sampling_event_init) refers to curr_saadc.o(i.timer_handler) for timer_handler
    curr_saadc.o(i.saadc_sampling_event_init) refers to curr_saadc.o(.data) for m_ppi_channel
    spi.o(i.SpiSlave) refers to rt_cmsis.o(i.osMailGet) for osMailGet
    spi.o(i.SpiSlave) refers to memcpya.o(.text) for __aeabi_memcpy
    spi.o(i.SpiSlave) refers to nrfx_spis.o(i.nrfx_spis_buffers_set) for nrfx_spis_buffers_set
    spi.o(i.SpiSlave) refers to rt_cmsis.o(i.osMailFree) for osMailFree
    spi.o(i.SpiSlave) refers to spi.o(.data) for spis_mail_ID
    spi.o(i.SpiSlave) refers to spi.o(.bss) for m_tx_buf
    spi.o(i.SpiSlave) refers to spi.o(.constdata) for spis
    spi.o(i.SpisEventHandler) refers to rt_cmsis.o(i.osSignalSet) for osSignalSet
    spi.o(i.SpisEventHandler) refers to rt_cmsis.o(i.osMailAlloc) for osMailAlloc
    spi.o(i.SpisEventHandler) refers to rt_cmsis.o(i.osMailPut) for osMailPut
    spi.o(i.SpisEventHandler) refers to spi.o(.data) for spis_xfer_done
    spi.o(i.SpisEventHandler) refers to mpu6050.o(.data) for PID_id
    spi.o(i.SpisInit) refers to memcpya.o(.text) for __aeabi_memcpy4
    spi.o(i.SpisInit) refers to nrf_drv_spis.o(i.nrf_drv_spis_init) for nrf_drv_spis_init
    spi.o(i.SpisInit) refers to nrfx_spis.o(i.nrfx_spis_buffers_set) for nrfx_spis_buffers_set
    spi.o(i.SpisInit) refers to print_server.o(i.PrintServerPrintf) for PrintServerPrintf
    spi.o(i.SpisInit) refers to rt_cmsis.o(i.osMailCreate) for osMailCreate
    spi.o(i.SpisInit) refers to rt_cmsis.o(i.osThreadCreate) for osThreadCreate
    spi.o(i.SpisInit) refers to spi.o(.constdata) for .constdata
    spi.o(i.SpisInit) refers to spi.o(i.SpisEventHandler) for SpisEventHandler
    spi.o(i.SpisInit) refers to spi.o(.data) for m_rx_buf
    spi.o(i.SpisInit) refers to spi.o(.bss) for m_tx_buf
    spi.o(.constdata) refers to spi.o(i.SpiSlave) for SpiSlave
    spi.o(.constdata) refers to spi.o(.data) for os_mailQ_p_spis_mail_Q
    spi.o(.data) refers to spi.o(.bss) for os_mailQ_q_spis_mail_Q
    boards.o(i.bsp_board_button_idx_to_pin) refers to boards.o(.constdata) for m_board_btn_list
    boards.o(i.bsp_board_button_state_get) refers to boards.o(.constdata) for m_board_btn_list
    boards.o(i.bsp_board_buttons_init) refers to boards.o(i.nrf_gpio_cfg) for nrf_gpio_cfg
    boards.o(i.bsp_board_buttons_init) refers to boards.o(.constdata) for m_board_btn_list
    boards.o(i.bsp_board_init) refers to boards.o(i.bsp_board_leds_init) for bsp_board_leds_init
    boards.o(i.bsp_board_init) refers to boards.o(i.bsp_board_buttons_init) for bsp_board_buttons_init
    boards.o(i.bsp_board_led_idx_to_pin) refers to boards.o(.constdata) for m_board_led_list
    boards.o(i.bsp_board_led_invert) refers to boards.o(.constdata) for m_board_led_list
    boards.o(i.bsp_board_led_off) refers to boards.o(i.nrf_gpio_pin_write) for nrf_gpio_pin_write
    boards.o(i.bsp_board_led_off) refers to boards.o(.constdata) for m_board_led_list
    boards.o(i.bsp_board_led_on) refers to boards.o(i.nrf_gpio_pin_write) for nrf_gpio_pin_write
    boards.o(i.bsp_board_led_on) refers to boards.o(.constdata) for m_board_led_list
    boards.o(i.bsp_board_led_state_get) refers to boards.o(.constdata) for m_board_led_list
    boards.o(i.bsp_board_leds_init) refers to boards.o(i.nrf_gpio_cfg) for nrf_gpio_cfg
    boards.o(i.bsp_board_leds_init) refers to boards.o(i.bsp_board_leds_off) for bsp_board_leds_off
    boards.o(i.bsp_board_leds_init) refers to boards.o(.constdata) for m_board_led_list
    boards.o(i.bsp_board_leds_off) refers to boards.o(i.bsp_board_led_off) for bsp_board_led_off
    boards.o(i.bsp_board_leds_on) refers to boards.o(i.bsp_board_led_on) for bsp_board_led_on
    boards.o(i.bsp_board_pin_to_button_idx) refers to boards.o(.constdata) for m_board_btn_list
    boards.o(i.bsp_board_pin_to_led_idx) refers to boards.o(.constdata) for m_board_led_list
    nrf_pwr_mgmt.o(i.nrf_pwr_mgmt_init) refers to nrf_section_iter.o(i.nrf_section_iter_init) for nrf_section_iter_init
    nrf_pwr_mgmt.o(i.nrf_pwr_mgmt_init) refers to nrf_pwr_mgmt.o(.data) for m_shutdown_started
    nrf_pwr_mgmt.o(i.nrf_pwr_mgmt_init) refers to nrf_pwr_mgmt.o(.constdata) for pwr_mgmt_data
    nrf_pwr_mgmt.o(i.nrf_pwr_mgmt_init) refers to nrf_pwr_mgmt.o(.bss) for m_handlers_iter
    nrf_pwr_mgmt.o(i.nrf_pwr_mgmt_shutdown) refers to nrf_atomic.o(i.nrf_atomic_u32_fetch_store) for nrf_atomic_u32_fetch_store
    nrf_pwr_mgmt.o(i.nrf_pwr_mgmt_shutdown) refers to nrf_pwr_mgmt.o(i.nrf_mtx_unlock) for nrf_mtx_unlock
    nrf_pwr_mgmt.o(i.nrf_pwr_mgmt_shutdown) refers to nrf_pwr_mgmt.o(i.shutdown_process) for shutdown_process
    nrf_pwr_mgmt.o(i.nrf_pwr_mgmt_shutdown) refers to nrf_pwr_mgmt.o(.data) for m_sysoff_mtx
    nrf_pwr_mgmt.o(i.shutdown_process) refers to nrf_section_iter.o(i.nrf_section_iter_next) for nrf_section_iter_next
    nrf_pwr_mgmt.o(i.shutdown_process) refers to nrf_pwr_mgmt.o(.bss) for m_handlers_iter
    nrf_pwr_mgmt.o(i.shutdown_process) refers to nrf_pwr_mgmt.o(.data) for m_pwr_mgmt_evt
    nrf_section_iter.o(i.nrf_section_iter_init) refers to nrf_section_iter.o(i.nrf_section_iter_item_set) for nrf_section_iter_item_set
    nrf_section_iter.o(i.nrf_section_iter_next) refers to nrf_section_iter.o(i.nrf_section_iter_item_set) for nrf_section_iter_item_set
    app_util_platform.o(i.app_util_critical_region_enter) refers to app_util_platform.o(i.app_util_disable_irq) for app_util_disable_irq
    app_util_platform.o(i.app_util_critical_region_exit) refers to app_util_platform.o(i.app_util_enable_irq) for app_util_enable_irq
    app_util_platform.o(i.app_util_disable_irq) refers to app_util_platform.o(.data) for m_in_critical_region
    app_util_platform.o(i.app_util_enable_irq) refers to app_util_platform.o(.data) for m_in_critical_region
    nrfx_uart.o(i.UARTE0_UART0_IRQHandler) refers to nrfx_uart.o(i.uart_irq_handler) for uart_irq_handler
    nrfx_uart.o(i.UARTE0_UART0_IRQHandler) refers to nrfx_uart.o(.bss) for m_cb
    nrfx_uart.o(i.apply_config) refers to nrfx_uart.o(i.nrf_gpio_pin_set) for nrf_gpio_pin_set
    nrfx_uart.o(i.apply_config) refers to nrfx_uart.o(i.nrf_gpio_cfg_output) for nrf_gpio_cfg_output
    nrfx_uart.o(i.apply_config) refers to nrfx_uart.o(i.nrf_gpio_cfg_input) for nrf_gpio_cfg_input
    nrfx_uart.o(i.apply_config) refers to nrfx_uart.o(i.nrf_uart_txrx_pins_set) for nrf_uart_txrx_pins_set
    nrfx_uart.o(i.apply_config) refers to nrfx_uart.o(i.nrf_uart_hwfc_pins_set) for nrf_uart_hwfc_pins_set
    nrfx_uart.o(i.interrupts_disable) refers to nrfx_uart.o(i.nrf_uart_int_disable) for nrf_uart_int_disable
    nrfx_uart.o(i.interrupts_disable) refers to nrfx_uart.o(i.nrfx_get_irq_number) for nrfx_get_irq_number
    nrfx_uart.o(i.interrupts_enable) refers to nrfx_uart.o(i.nrf_uart_event_clear) for nrf_uart_event_clear
    nrfx_uart.o(i.interrupts_enable) refers to nrfx_uart.o(i.nrf_uart_int_enable) for nrf_uart_int_enable
    nrfx_uart.o(i.interrupts_enable) refers to nrfx_uart.o(i.nrfx_get_irq_number) for nrfx_get_irq_number
    nrfx_uart.o(i.nrf_gpio_cfg_default) refers to nrfx_uart.o(i.nrf_gpio_cfg) for nrf_gpio_cfg
    nrfx_uart.o(i.nrf_gpio_cfg_input) refers to nrfx_uart.o(i.nrf_gpio_cfg) for nrf_gpio_cfg
    nrfx_uart.o(i.nrf_gpio_cfg_output) refers to nrfx_uart.o(i.nrf_gpio_cfg) for nrf_gpio_cfg
    nrfx_uart.o(i.nrfx_uart_errorsrc_get) refers to nrfx_uart.o(i.nrf_uart_event_clear) for nrf_uart_event_clear
    nrfx_uart.o(i.nrfx_uart_errorsrc_get) refers to nrfx_uart.o(i.nrf_uart_errorsrc_get_and_clear) for nrf_uart_errorsrc_get_and_clear
    nrfx_uart.o(i.nrfx_uart_init) refers to nrfx_uart.o(i.apply_config) for apply_config
    nrfx_uart.o(i.nrfx_uart_init) refers to nrfx_uart.o(i.interrupts_enable) for interrupts_enable
    nrfx_uart.o(i.nrfx_uart_init) refers to nrfx_uart.o(.bss) for m_cb
    nrfx_uart.o(i.nrfx_uart_rx) refers to nrfx_uart.o(i.nrf_uart_int_disable) for nrf_uart_int_disable
    nrfx_uart.o(i.nrfx_uart_rx) refers to nrfx_uart.o(i.nrf_uart_int_enable) for nrf_uart_int_enable
    nrfx_uart.o(i.nrfx_uart_rx) refers to nrfx_uart.o(i.rx_enable) for rx_enable
    nrfx_uart.o(i.nrfx_uart_rx) refers to nrfx_uart.o(i.nrf_uart_event_clear) for nrf_uart_event_clear
    nrfx_uart.o(i.nrfx_uart_rx) refers to nrfx_uart.o(i.nrf_uart_event_check) for nrf_uart_event_check
    nrfx_uart.o(i.nrfx_uart_rx) refers to nrfx_uart.o(i.rx_byte) for rx_byte
    nrfx_uart.o(i.nrfx_uart_rx) refers to nrfx_uart.o(i.nrf_uart_task_trigger) for nrf_uart_task_trigger
    nrfx_uart.o(i.nrfx_uart_rx) refers to nrfx_uart.o(.bss) for m_cb
    nrfx_uart.o(i.nrfx_uart_rx_abort) refers to nrfx_uart.o(i.nrf_uart_int_disable) for nrf_uart_int_disable
    nrfx_uart.o(i.nrfx_uart_rx_abort) refers to nrfx_uart.o(i.nrf_uart_task_trigger) for nrf_uart_task_trigger
    nrfx_uart.o(i.nrfx_uart_rx_disable) refers to nrfx_uart.o(i.nrf_uart_task_trigger) for nrf_uart_task_trigger
    nrfx_uart.o(i.nrfx_uart_rx_disable) refers to nrfx_uart.o(.bss) for m_cb
    nrfx_uart.o(i.nrfx_uart_rx_enable) refers to nrfx_uart.o(i.rx_enable) for rx_enable
    nrfx_uart.o(i.nrfx_uart_rx_enable) refers to nrfx_uart.o(.bss) for m_cb
    nrfx_uart.o(i.nrfx_uart_rx_ready) refers to nrfx_uart.o(i.nrf_uart_event_check) for nrf_uart_event_check
    nrfx_uart.o(i.nrfx_uart_tx) refers to nrfx_uart.o(i.nrfx_uart_tx_in_progress) for nrfx_uart_tx_in_progress
    nrfx_uart.o(i.nrfx_uart_tx) refers to nrfx_uart.o(i.nrf_uart_event_clear) for nrf_uart_event_clear
    nrfx_uart.o(i.nrfx_uart_tx) refers to nrfx_uart.o(i.nrf_uart_task_trigger) for nrf_uart_task_trigger
    nrfx_uart.o(i.nrfx_uart_tx) refers to nrfx_uart.o(i.tx_byte) for tx_byte
    nrfx_uart.o(i.nrfx_uart_tx) refers to nrfx_uart.o(i.tx_blocking) for tx_blocking
    nrfx_uart.o(i.nrfx_uart_tx) refers to nrfx_uart.o(i.nrf_uart_event_check) for nrf_uart_event_check
    nrfx_uart.o(i.nrfx_uart_tx) refers to nrfx_uart.o(.bss) for m_cb
    nrfx_uart.o(i.nrfx_uart_tx_abort) refers to nrfx_uart.o(i.nrf_uart_task_trigger) for nrf_uart_task_trigger
    nrfx_uart.o(i.nrfx_uart_tx_abort) refers to nrfx_uart.o(i.tx_done_event) for tx_done_event
    nrfx_uart.o(i.nrfx_uart_tx_abort) refers to nrfx_uart.o(.bss) for m_cb
    nrfx_uart.o(i.nrfx_uart_tx_in_progress) refers to nrfx_uart.o(.bss) for m_cb
    nrfx_uart.o(i.nrfx_uart_uninit) refers to nrfx_uart.o(i.interrupts_disable) for interrupts_disable
    nrfx_uart.o(i.nrfx_uart_uninit) refers to nrfx_uart.o(i.pins_to_default) for pins_to_default
    nrfx_uart.o(i.nrfx_uart_uninit) refers to nrfx_uart.o(.bss) for m_cb
    nrfx_uart.o(i.pins_to_default) refers to nrfx_uart.o(i.nrf_uart_txrx_pins_set) for nrf_uart_txrx_pins_set
    nrfx_uart.o(i.pins_to_default) refers to nrfx_uart.o(i.nrf_uart_hwfc_pins_set) for nrf_uart_hwfc_pins_set
    nrfx_uart.o(i.pins_to_default) refers to nrfx_uart.o(i.nrf_gpio_cfg_default) for nrf_gpio_cfg_default
    nrfx_uart.o(i.rx_byte) refers to nrfx_uart.o(i.nrf_uart_event_clear) for nrf_uart_event_clear
    nrfx_uart.o(i.rx_enable) refers to nrfx_uart.o(i.nrf_uart_event_clear) for nrf_uart_event_clear
    nrfx_uart.o(i.rx_enable) refers to nrfx_uart.o(i.nrf_uart_task_trigger) for nrf_uart_task_trigger
    nrfx_uart.o(i.tx_blocking) refers to nrfx_uart.o(i.nrf_uart_event_check) for nrf_uart_event_check
    nrfx_uart.o(i.tx_blocking) refers to nrfx_uart.o(i.tx_byte) for tx_byte
    nrfx_uart.o(i.tx_byte) refers to nrfx_uart.o(i.nrf_uart_event_clear) for nrf_uart_event_clear
    nrfx_uart.o(i.uart_irq_handler) refers to nrfx_uart.o(i.nrf_uart_int_enable_check) for nrf_uart_int_enable_check
    nrfx_uart.o(i.uart_irq_handler) refers to nrfx_uart.o(i.nrf_uart_event_check) for nrf_uart_event_check
    nrfx_uart.o(i.uart_irq_handler) refers to nrfx_uart.o(i.nrf_uart_event_clear) for nrf_uart_event_clear
    nrfx_uart.o(i.uart_irq_handler) refers to nrfx_uart.o(i.nrf_uart_int_disable) for nrf_uart_int_disable
    nrfx_uart.o(i.uart_irq_handler) refers to nrfx_uart.o(i.nrf_uart_task_trigger) for nrf_uart_task_trigger
    nrfx_uart.o(i.uart_irq_handler) refers to nrfx_uart.o(i.nrf_uart_errorsrc_get_and_clear) for nrf_uart_errorsrc_get_and_clear
    nrfx_uart.o(i.uart_irq_handler) refers to nrfx_uart.o(i.rx_byte) for rx_byte
    nrfx_uart.o(i.uart_irq_handler) refers to nrfx_uart.o(i.rx_done_event) for rx_done_event
    nrfx_uart.o(i.uart_irq_handler) refers to nrfx_uart.o(i.tx_byte) for tx_byte
    nrfx_uart.o(i.uart_irq_handler) refers to nrfx_uart.o(i.tx_done_event) for tx_done_event
    nrfx_gpiote.o(i.GPIOTE_IRQHandler) refers to nrfx_gpiote.o(i.nrf_gpiote_event_is_set) for nrf_gpiote_event_is_set
    nrfx_gpiote.o(i.GPIOTE_IRQHandler) refers to nrfx_gpiote.o(i.nrf_gpiote_event_clear) for nrf_gpiote_event_clear
    nrfx_gpiote.o(i.GPIOTE_IRQHandler) refers to nrfx_gpiote.o(i.nrf_gpio_ports_read) for nrf_gpio_ports_read
    nrfx_gpiote.o(i.GPIOTE_IRQHandler) refers to nrfx_gpiote.o(i.channel_handler_get) for channel_handler_get
    nrfx_gpiote.o(i.GPIOTE_IRQHandler) refers to nrfx_gpiote.o(i.nrf_bitmask_bit_is_set) for nrf_bitmask_bit_is_set
    nrfx_gpiote.o(i.GPIOTE_IRQHandler) refers to nrfx_gpiote.o(i.channel_port_get) for channel_port_get
    nrfx_gpiote.o(i.GPIOTE_IRQHandler) refers to nrfx_gpiote.o(i.nrf_bitmask_bit_set) for nrf_bitmask_bit_set
    nrfx_gpiote.o(i.GPIOTE_IRQHandler) refers to nrfx_gpiote.o(i.nrf_gpio_cfg_sense_set) for nrf_gpio_cfg_sense_set
    nrfx_gpiote.o(i.GPIOTE_IRQHandler) refers to nrfx_gpiote.o(.bss) for m_cb
    nrfx_gpiote.o(i.channel_free) refers to nrfx_gpiote.o(.bss) for m_cb
    nrfx_gpiote.o(i.channel_handler_get) refers to nrfx_gpiote.o(.bss) for m_cb
    nrfx_gpiote.o(i.channel_port_alloc) refers to nrfx_gpiote.o(.bss) for m_cb
    nrfx_gpiote.o(i.channel_port_get) refers to nrfx_gpiote.o(.bss) for m_cb
    nrfx_gpiote.o(i.nrf_gpio_cfg_default) refers to nrfx_gpiote.o(i.nrf_gpio_cfg) for nrf_gpio_cfg
    nrfx_gpiote.o(i.nrf_gpio_ports_read) refers to nrfx_gpiote.o(.constdata) for .constdata
    nrfx_gpiote.o(i.nrf_gpiote_event_clear) refers to nrfx_gpiote.o(i.nrf_gpiote_event_addr_get) for nrf_gpiote_event_addr_get
    nrfx_gpiote.o(i.nrf_gpiote_event_is_set) refers to nrfx_gpiote.o(i.nrf_gpiote_event_addr_get) for nrf_gpiote_event_addr_get
    nrfx_gpiote.o(i.nrfx_gpiote_clr_task_addr_get) refers to nrfx_gpiote.o(i.channel_port_get) for channel_port_get
    nrfx_gpiote.o(i.nrfx_gpiote_clr_task_addr_get) refers to nrfx_gpiote.o(i.nrf_gpiote_task_addr_get) for nrf_gpiote_task_addr_get
    nrfx_gpiote.o(i.nrfx_gpiote_clr_task_trigger) refers to nrfx_gpiote.o(i.channel_port_get) for channel_port_get
    nrfx_gpiote.o(i.nrfx_gpiote_in_event_addr_get) refers to nrfx_gpiote.o(i.pin_in_use_by_te) for pin_in_use_by_te
    nrfx_gpiote.o(i.nrfx_gpiote_in_event_addr_get) refers to nrfx_gpiote.o(i.channel_port_get) for channel_port_get
    nrfx_gpiote.o(i.nrfx_gpiote_in_event_addr_get) refers to nrfx_gpiote.o(i.nrf_gpiote_event_addr_get) for nrf_gpiote_event_addr_get
    nrfx_gpiote.o(i.nrfx_gpiote_in_event_disable) refers to nrfx_gpiote.o(i.pin_in_use_by_port) for pin_in_use_by_port
    nrfx_gpiote.o(i.nrfx_gpiote_in_event_disable) refers to nrfx_gpiote.o(i.nrf_gpio_cfg_sense_set) for nrf_gpio_cfg_sense_set
    nrfx_gpiote.o(i.nrfx_gpiote_in_event_disable) refers to nrfx_gpiote.o(i.pin_in_use_by_te) for pin_in_use_by_te
    nrfx_gpiote.o(i.nrfx_gpiote_in_event_disable) refers to nrfx_gpiote.o(i.channel_port_get) for channel_port_get
    nrfx_gpiote.o(i.nrfx_gpiote_in_event_enable) refers to nrfx_gpiote.o(i.pin_in_use_by_port) for pin_in_use_by_port
    nrfx_gpiote.o(i.nrfx_gpiote_in_event_enable) refers to nrfx_gpiote.o(i.channel_port_get) for channel_port_get
    nrfx_gpiote.o(i.nrfx_gpiote_in_event_enable) refers to nrfx_gpiote.o(i.nrf_gpio_pin_read) for nrf_gpio_pin_read
    nrfx_gpiote.o(i.nrfx_gpiote_in_event_enable) refers to nrfx_gpiote.o(i.nrf_gpio_cfg_sense_set) for nrf_gpio_cfg_sense_set
    nrfx_gpiote.o(i.nrfx_gpiote_in_event_enable) refers to nrfx_gpiote.o(i.pin_in_use_by_te) for pin_in_use_by_te
    nrfx_gpiote.o(i.nrfx_gpiote_in_event_enable) refers to nrfx_gpiote.o(i.nrf_gpiote_event_clear) for nrf_gpiote_event_clear
    nrfx_gpiote.o(i.nrfx_gpiote_in_event_enable) refers to nrfx_gpiote.o(i.channel_handler_get) for channel_handler_get
    nrfx_gpiote.o(i.nrfx_gpiote_in_event_enable) refers to nrfx_gpiote.o(i.nrf_gpiote_int_enable) for nrf_gpiote_int_enable
    nrfx_gpiote.o(i.nrfx_gpiote_in_event_enable) refers to nrfx_gpiote.o(.bss) for m_cb
    nrfx_gpiote.o(i.nrfx_gpiote_in_init) refers to nrfx_gpiote.o(i.pin_in_use_by_gpiote) for pin_in_use_by_gpiote
    nrfx_gpiote.o(i.nrfx_gpiote_in_init) refers to nrfx_gpiote.o(i.channel_port_alloc) for channel_port_alloc
    nrfx_gpiote.o(i.nrfx_gpiote_in_init) refers to nrfx_gpiote.o(i.nrf_gpio_cfg) for nrf_gpio_cfg
    nrfx_gpiote.o(i.nrfx_gpiote_in_init) refers to nrfx_gpiote.o(i.pin_configured_set) for pin_configured_set
    nrfx_gpiote.o(i.nrfx_gpiote_in_init) refers to nrfx_gpiote.o(.bss) for m_cb
    nrfx_gpiote.o(i.nrfx_gpiote_in_is_set) refers to nrfx_gpiote.o(i.nrf_gpio_pin_read) for nrf_gpio_pin_read
    nrfx_gpiote.o(i.nrfx_gpiote_in_uninit) refers to nrfx_gpiote.o(i.nrfx_gpiote_in_event_disable) for nrfx_gpiote_in_event_disable
    nrfx_gpiote.o(i.nrfx_gpiote_in_uninit) refers to nrfx_gpiote.o(i.pin_in_use_by_te) for pin_in_use_by_te
    nrfx_gpiote.o(i.nrfx_gpiote_in_uninit) refers to nrfx_gpiote.o(i.channel_port_get) for channel_port_get
    nrfx_gpiote.o(i.nrfx_gpiote_in_uninit) refers to nrfx_gpiote.o(i.nrf_gpiote_te_default) for nrf_gpiote_te_default
    nrfx_gpiote.o(i.nrfx_gpiote_in_uninit) refers to nrfx_gpiote.o(i.pin_configured_check) for pin_configured_check
    nrfx_gpiote.o(i.nrfx_gpiote_in_uninit) refers to nrfx_gpiote.o(i.nrf_gpio_cfg_default) for nrf_gpio_cfg_default
    nrfx_gpiote.o(i.nrfx_gpiote_in_uninit) refers to nrfx_gpiote.o(i.pin_configured_clear) for pin_configured_clear
    nrfx_gpiote.o(i.nrfx_gpiote_in_uninit) refers to nrfx_gpiote.o(i.channel_free) for channel_free
    nrfx_gpiote.o(i.nrfx_gpiote_in_uninit) refers to nrfx_gpiote.o(i.pin_in_use_clear) for pin_in_use_clear
    nrfx_gpiote.o(i.nrfx_gpiote_init) refers to nrfx_gpiote.o(i.pin_in_use_clear) for pin_in_use_clear
    nrfx_gpiote.o(i.nrfx_gpiote_init) refers to nrfx_gpiote.o(i.channel_free) for channel_free
    nrfx_gpiote.o(i.nrfx_gpiote_init) refers to nrfx_gpiote.o(i.nrf_gpiote_event_clear) for nrf_gpiote_event_clear
    nrfx_gpiote.o(i.nrfx_gpiote_init) refers to nrfx_gpiote.o(i.nrf_gpiote_int_enable) for nrf_gpiote_int_enable
    nrfx_gpiote.o(i.nrfx_gpiote_init) refers to nrfx_gpiote.o(.bss) for m_cb
    nrfx_gpiote.o(i.nrfx_gpiote_is_init) refers to nrfx_gpiote.o(.bss) for m_cb
    nrfx_gpiote.o(i.nrfx_gpiote_out_clear) refers to nrfx_gpiote.o(i.nrf_gpio_pin_clear) for nrf_gpio_pin_clear
    nrfx_gpiote.o(i.nrfx_gpiote_out_init) refers to nrfx_gpiote.o(i.channel_port_alloc) for channel_port_alloc
    nrfx_gpiote.o(i.nrfx_gpiote_out_init) refers to nrfx_gpiote.o(i.nrf_gpio_pin_set) for nrf_gpio_pin_set
    nrfx_gpiote.o(i.nrfx_gpiote_out_init) refers to nrfx_gpiote.o(i.nrf_gpio_pin_clear) for nrf_gpio_pin_clear
    nrfx_gpiote.o(i.nrfx_gpiote_out_init) refers to nrfx_gpiote.o(i.nrf_gpio_cfg) for nrf_gpio_cfg
    nrfx_gpiote.o(i.nrfx_gpiote_out_init) refers to nrfx_gpiote.o(i.pin_configured_set) for pin_configured_set
    nrfx_gpiote.o(i.nrfx_gpiote_out_init) refers to nrfx_gpiote.o(.bss) for m_cb
    nrfx_gpiote.o(i.nrfx_gpiote_out_set) refers to nrfx_gpiote.o(i.nrf_gpio_pin_set) for nrf_gpio_pin_set
    nrfx_gpiote.o(i.nrfx_gpiote_out_task_addr_get) refers to nrfx_gpiote.o(i.channel_port_get) for channel_port_get
    nrfx_gpiote.o(i.nrfx_gpiote_out_task_addr_get) refers to nrfx_gpiote.o(i.nrf_gpiote_task_addr_get) for nrf_gpiote_task_addr_get
    nrfx_gpiote.o(i.nrfx_gpiote_out_task_disable) refers to nrfx_gpiote.o(.bss) for m_cb
    nrfx_gpiote.o(i.nrfx_gpiote_out_task_enable) refers to nrfx_gpiote.o(.bss) for m_cb
    nrfx_gpiote.o(i.nrfx_gpiote_out_task_force) refers to nrfx_gpiote.o(.bss) for m_cb
    nrfx_gpiote.o(i.nrfx_gpiote_out_task_trigger) refers to nrfx_gpiote.o(i.channel_port_get) for channel_port_get
    nrfx_gpiote.o(i.nrfx_gpiote_out_uninit) refers to nrfx_gpiote.o(i.pin_in_use_by_te) for pin_in_use_by_te
    nrfx_gpiote.o(i.nrfx_gpiote_out_uninit) refers to nrfx_gpiote.o(i.channel_port_get) for channel_port_get
    nrfx_gpiote.o(i.nrfx_gpiote_out_uninit) refers to nrfx_gpiote.o(i.channel_free) for channel_free
    nrfx_gpiote.o(i.nrfx_gpiote_out_uninit) refers to nrfx_gpiote.o(i.nrf_gpiote_te_default) for nrf_gpiote_te_default
    nrfx_gpiote.o(i.nrfx_gpiote_out_uninit) refers to nrfx_gpiote.o(i.pin_in_use_clear) for pin_in_use_clear
    nrfx_gpiote.o(i.nrfx_gpiote_out_uninit) refers to nrfx_gpiote.o(i.pin_configured_check) for pin_configured_check
    nrfx_gpiote.o(i.nrfx_gpiote_out_uninit) refers to nrfx_gpiote.o(i.nrf_gpio_cfg_default) for nrf_gpio_cfg_default
    nrfx_gpiote.o(i.nrfx_gpiote_out_uninit) refers to nrfx_gpiote.o(i.pin_configured_clear) for pin_configured_clear
    nrfx_gpiote.o(i.nrfx_gpiote_set_task_addr_get) refers to nrfx_gpiote.o(i.channel_port_get) for channel_port_get
    nrfx_gpiote.o(i.nrfx_gpiote_set_task_addr_get) refers to nrfx_gpiote.o(i.nrf_gpiote_task_addr_get) for nrf_gpiote_task_addr_get
    nrfx_gpiote.o(i.nrfx_gpiote_set_task_trigger) refers to nrfx_gpiote.o(i.channel_port_get) for channel_port_get
    nrfx_gpiote.o(i.nrfx_gpiote_uninit) refers to nrfx_gpiote.o(i.nrfx_gpiote_out_uninit) for nrfx_gpiote_out_uninit
    nrfx_gpiote.o(i.nrfx_gpiote_uninit) refers to nrfx_gpiote.o(i.pin_in_use_by_gpiote) for pin_in_use_by_gpiote
    nrfx_gpiote.o(i.nrfx_gpiote_uninit) refers to nrfx_gpiote.o(i.nrfx_gpiote_in_uninit) for nrfx_gpiote_in_uninit
    nrfx_gpiote.o(i.nrfx_gpiote_uninit) refers to nrfx_gpiote.o(.bss) for m_cb
    nrfx_gpiote.o(i.pin_configured_check) refers to nrfx_gpiote.o(i.nrf_bitmask_bit_is_set) for nrf_bitmask_bit_is_set
    nrfx_gpiote.o(i.pin_configured_check) refers to nrfx_gpiote.o(.bss) for m_cb
    nrfx_gpiote.o(i.pin_configured_clear) refers to nrfx_gpiote.o(.bss) for m_cb
    nrfx_gpiote.o(i.pin_configured_set) refers to nrfx_gpiote.o(i.nrf_bitmask_bit_set) for nrf_bitmask_bit_set
    nrfx_gpiote.o(i.pin_configured_set) refers to nrfx_gpiote.o(.bss) for m_cb
    nrfx_gpiote.o(i.pin_in_use_by_gpiote) refers to nrfx_gpiote.o(.bss) for m_cb
    nrfx_gpiote.o(i.pin_in_use_by_port) refers to nrfx_gpiote.o(.bss) for m_cb
    nrfx_gpiote.o(i.pin_in_use_by_te) refers to nrfx_gpiote.o(.bss) for m_cb
    nrfx_gpiote.o(i.pin_in_use_clear) refers to nrfx_gpiote.o(.bss) for m_cb
    nrf_drv_ppi.o(i.nrf_drv_ppi_init) refers to nrf_drv_ppi.o(.data) for m_drv_state
    nrf_drv_ppi.o(i.nrf_drv_ppi_uninit) refers to nrfx_ppi.o(i.nrfx_ppi_free_all) for nrfx_ppi_free_all
    nrf_drv_ppi.o(i.nrf_drv_ppi_uninit) refers to nrf_drv_ppi.o(.data) for m_drv_state
    nrf_drv_uart.o(i.nrf_drv_uart_init) refers to memcpya.o(.text) for __aeabi_memcpy4
    nrf_drv_uart.o(i.nrf_drv_uart_init) refers to nrfx_uart.o(i.nrfx_uart_init) for nrfx_uart_init
    nrf_drv_uart.o(i.nrf_drv_uart_init) refers to nrf_drv_uart.o(.data) for m_handlers
    nrf_drv_uart.o(i.nrf_drv_uart_init) refers to nrf_drv_uart.o(i.uart_evt_handler) for uart_evt_handler
    nrf_drv_uart.o(i.uart_evt_handler) refers to nrf_drv_uart.o(.data) for m_contexts
    nrfx_atomic.o(i.nrfx_atomic_flag_clear) refers to nrfx_atomic.o(i.nrfx_atomic_u32_and) for nrfx_atomic_u32_and
    nrfx_atomic.o(i.nrfx_atomic_flag_clear_fetch) refers to nrfx_atomic.o(i.nrfx_atomic_u32_fetch_and) for nrfx_atomic_u32_fetch_and
    nrfx_atomic.o(i.nrfx_atomic_flag_set) refers to nrfx_atomic.o(i.nrfx_atomic_u32_or) for nrfx_atomic_u32_or
    nrfx_atomic.o(i.nrfx_atomic_flag_set_fetch) refers to nrfx_atomic.o(i.nrfx_atomic_u32_fetch_or) for nrfx_atomic_u32_fetch_or
    nrfx_atomic.o(i.nrfx_atomic_u32_add) refers to nrfx_atomic.o(.emb_text) for __asm___13_nrfx_atomic_c_3bd32246__nrfx_atomic_internal_add
    nrfx_atomic.o(i.nrfx_atomic_u32_and) refers to nrfx_atomic.o(.emb_text) for __asm___13_nrfx_atomic_c_3bd32246__nrfx_atomic_internal_and
    nrfx_atomic.o(i.nrfx_atomic_u32_cmp_exch) refers to nrfx_atomic.o(.emb_text) for __asm___13_nrfx_atomic_c_3bd32246__nrfx_atomic_internal_cmp_exch
    nrfx_atomic.o(i.nrfx_atomic_u32_fetch_add) refers to nrfx_atomic.o(.emb_text) for __asm___13_nrfx_atomic_c_3bd32246__nrfx_atomic_internal_add
    nrfx_atomic.o(i.nrfx_atomic_u32_fetch_and) refers to nrfx_atomic.o(.emb_text) for __asm___13_nrfx_atomic_c_3bd32246__nrfx_atomic_internal_and
    nrfx_atomic.o(i.nrfx_atomic_u32_fetch_or) refers to nrfx_atomic.o(.emb_text) for __asm___13_nrfx_atomic_c_3bd32246__nrfx_atomic_internal_orr
    nrfx_atomic.o(i.nrfx_atomic_u32_fetch_store) refers to nrfx_atomic.o(.emb_text) for __asm___13_nrfx_atomic_c_3bd32246__nrfx_atomic_internal_mov
    nrfx_atomic.o(i.nrfx_atomic_u32_fetch_sub) refers to nrfx_atomic.o(.emb_text) for __asm___13_nrfx_atomic_c_3bd32246__nrfx_atomic_internal_sub
    nrfx_atomic.o(i.nrfx_atomic_u32_fetch_sub_hs) refers to nrfx_atomic.o(.emb_text) for __asm___13_nrfx_atomic_c_3bd32246__nrfx_atomic_internal_sub_hs
    nrfx_atomic.o(i.nrfx_atomic_u32_fetch_xor) refers to nrfx_atomic.o(.emb_text) for __asm___13_nrfx_atomic_c_3bd32246__nrfx_atomic_internal_eor
    nrfx_atomic.o(i.nrfx_atomic_u32_or) refers to nrfx_atomic.o(.emb_text) for __asm___13_nrfx_atomic_c_3bd32246__nrfx_atomic_internal_orr
    nrfx_atomic.o(i.nrfx_atomic_u32_store) refers to nrfx_atomic.o(.emb_text) for __asm___13_nrfx_atomic_c_3bd32246__nrfx_atomic_internal_mov
    nrfx_atomic.o(i.nrfx_atomic_u32_sub) refers to nrfx_atomic.o(.emb_text) for __asm___13_nrfx_atomic_c_3bd32246__nrfx_atomic_internal_sub
    nrfx_atomic.o(i.nrfx_atomic_u32_sub_hs) refers to nrfx_atomic.o(.emb_text) for __asm___13_nrfx_atomic_c_3bd32246__nrfx_atomic_internal_sub_hs
    nrfx_atomic.o(i.nrfx_atomic_u32_xor) refers to nrfx_atomic.o(.emb_text) for __asm___13_nrfx_atomic_c_3bd32246__nrfx_atomic_internal_eor
    nrfx_ppi.o(i.is_allocated_channel) refers to nrfx_ppi.o(i.nrfx_ppi_channel_to_mask) for nrfx_ppi_channel_to_mask
    nrfx_ppi.o(i.is_allocated_channel) refers to nrfx_ppi.o(.data) for m_channels_allocated
    nrfx_ppi.o(i.is_allocated_group) refers to nrfx_ppi.o(i.group_to_mask) for group_to_mask
    nrfx_ppi.o(i.is_allocated_group) refers to nrfx_ppi.o(.data) for m_groups_allocated
    nrfx_ppi.o(i.is_app_channel) refers to nrfx_ppi.o(i.nrfx_ppi_channel_to_mask) for nrfx_ppi_channel_to_mask
    nrfx_ppi.o(i.is_app_group) refers to nrfx_ppi.o(i.group_to_mask) for group_to_mask
    nrfx_ppi.o(i.is_programmable_app_channel) refers to nrfx_ppi.o(i.nrfx_ppi_channel_to_mask) for nrfx_ppi_channel_to_mask
    nrfx_ppi.o(i.nrfx_ppi_channel_alloc) refers to app_util_platform.o(i.app_util_critical_region_enter) for app_util_critical_region_enter
    nrfx_ppi.o(i.nrfx_ppi_channel_alloc) refers to nrfx_ppi.o(i.nrfx_ppi_channel_to_mask) for nrfx_ppi_channel_to_mask
    nrfx_ppi.o(i.nrfx_ppi_channel_alloc) refers to nrfx_ppi.o(i.is_allocated_channel) for is_allocated_channel
    nrfx_ppi.o(i.nrfx_ppi_channel_alloc) refers to app_util_platform.o(i.app_util_critical_region_exit) for app_util_critical_region_exit
    nrfx_ppi.o(i.nrfx_ppi_channel_alloc) refers to nrfx_ppi.o(.data) for m_channels_allocated
    nrfx_ppi.o(i.nrfx_ppi_channel_assign) refers to nrfx_ppi.o(i.is_programmable_app_channel) for is_programmable_app_channel
    nrfx_ppi.o(i.nrfx_ppi_channel_assign) refers to nrfx_ppi.o(i.is_allocated_channel) for is_allocated_channel
    nrfx_ppi.o(i.nrfx_ppi_channel_disable) refers to nrfx_ppi.o(i.is_app_channel) for is_app_channel
    nrfx_ppi.o(i.nrfx_ppi_channel_disable) refers to nrfx_ppi.o(i.is_programmable_app_channel) for is_programmable_app_channel
    nrfx_ppi.o(i.nrfx_ppi_channel_disable) refers to nrfx_ppi.o(i.is_allocated_channel) for is_allocated_channel
    nrfx_ppi.o(i.nrfx_ppi_channel_disable) refers to nrfx_ppi.o(i.nrf_ppi_channel_disable) for nrf_ppi_channel_disable
    nrfx_ppi.o(i.nrfx_ppi_channel_enable) refers to nrfx_ppi.o(i.is_app_channel) for is_app_channel
    nrfx_ppi.o(i.nrfx_ppi_channel_enable) refers to nrfx_ppi.o(i.is_programmable_app_channel) for is_programmable_app_channel
    nrfx_ppi.o(i.nrfx_ppi_channel_enable) refers to nrfx_ppi.o(i.is_allocated_channel) for is_allocated_channel
    nrfx_ppi.o(i.nrfx_ppi_channel_fork_assign) refers to nrfx_ppi.o(i.is_allocated_channel) for is_allocated_channel
    nrfx_ppi.o(i.nrfx_ppi_channel_free) refers to nrfx_ppi.o(i.is_programmable_app_channel) for is_programmable_app_channel
    nrfx_ppi.o(i.nrfx_ppi_channel_free) refers to nrfx_ppi.o(i.nrf_ppi_channel_disable) for nrf_ppi_channel_disable
    nrfx_ppi.o(i.nrfx_ppi_channel_free) refers to app_util_platform.o(i.app_util_critical_region_enter) for app_util_critical_region_enter
    nrfx_ppi.o(i.nrfx_ppi_channel_free) refers to nrfx_ppi.o(i.nrfx_ppi_channel_to_mask) for nrfx_ppi_channel_to_mask
    nrfx_ppi.o(i.nrfx_ppi_channel_free) refers to app_util_platform.o(i.app_util_critical_region_exit) for app_util_critical_region_exit
    nrfx_ppi.o(i.nrfx_ppi_channel_free) refers to nrfx_ppi.o(.data) for m_channels_allocated
    nrfx_ppi.o(i.nrfx_ppi_channels_include_in_group) refers to nrfx_ppi.o(i.is_app_group) for is_app_group
    nrfx_ppi.o(i.nrfx_ppi_channels_include_in_group) refers to nrfx_ppi.o(i.is_allocated_group) for is_allocated_group
    nrfx_ppi.o(i.nrfx_ppi_channels_include_in_group) refers to app_util_platform.o(i.app_util_critical_region_enter) for app_util_critical_region_enter
    nrfx_ppi.o(i.nrfx_ppi_channels_include_in_group) refers to app_util_platform.o(i.app_util_critical_region_exit) for app_util_critical_region_exit
    nrfx_ppi.o(i.nrfx_ppi_channels_remove_from_group) refers to nrfx_ppi.o(i.is_app_group) for is_app_group
    nrfx_ppi.o(i.nrfx_ppi_channels_remove_from_group) refers to nrfx_ppi.o(i.is_allocated_group) for is_allocated_group
    nrfx_ppi.o(i.nrfx_ppi_channels_remove_from_group) refers to app_util_platform.o(i.app_util_critical_region_enter) for app_util_critical_region_enter
    nrfx_ppi.o(i.nrfx_ppi_channels_remove_from_group) refers to app_util_platform.o(i.app_util_critical_region_exit) for app_util_critical_region_exit
    nrfx_ppi.o(i.nrfx_ppi_free_all) refers to nrfx_ppi.o(i.group_to_mask) for group_to_mask
    nrfx_ppi.o(i.nrfx_ppi_free_all) refers to nrfx_ppi.o(.data) for m_channels_allocated
    nrfx_ppi.o(i.nrfx_ppi_group_alloc) refers to app_util_platform.o(i.app_util_critical_region_enter) for app_util_critical_region_enter
    nrfx_ppi.o(i.nrfx_ppi_group_alloc) refers to nrfx_ppi.o(i.group_to_mask) for group_to_mask
    nrfx_ppi.o(i.nrfx_ppi_group_alloc) refers to nrfx_ppi.o(i.is_allocated_group) for is_allocated_group
    nrfx_ppi.o(i.nrfx_ppi_group_alloc) refers to app_util_platform.o(i.app_util_critical_region_exit) for app_util_critical_region_exit
    nrfx_ppi.o(i.nrfx_ppi_group_alloc) refers to nrfx_ppi.o(.data) for m_groups_allocated
    nrfx_ppi.o(i.nrfx_ppi_group_disable) refers to nrfx_ppi.o(i.is_app_group) for is_app_group
    nrfx_ppi.o(i.nrfx_ppi_group_disable) refers to nrfx_ppi.o(i.nrf_ppi_group_disable) for nrf_ppi_group_disable
    nrfx_ppi.o(i.nrfx_ppi_group_enable) refers to nrfx_ppi.o(i.is_app_group) for is_app_group
    nrfx_ppi.o(i.nrfx_ppi_group_enable) refers to nrfx_ppi.o(i.is_allocated_group) for is_allocated_group
    nrfx_ppi.o(i.nrfx_ppi_group_free) refers to nrfx_ppi.o(i.is_app_group) for is_app_group
    nrfx_ppi.o(i.nrfx_ppi_group_free) refers to nrfx_ppi.o(i.is_allocated_group) for is_allocated_group
    nrfx_ppi.o(i.nrfx_ppi_group_free) refers to nrfx_ppi.o(i.nrf_ppi_group_disable) for nrf_ppi_group_disable
    nrfx_ppi.o(i.nrfx_ppi_group_free) refers to app_util_platform.o(i.app_util_critical_region_enter) for app_util_critical_region_enter
    nrfx_ppi.o(i.nrfx_ppi_group_free) refers to nrfx_ppi.o(i.group_to_mask) for group_to_mask
    nrfx_ppi.o(i.nrfx_ppi_group_free) refers to app_util_platform.o(i.app_util_critical_region_exit) for app_util_critical_region_exit
    nrfx_ppi.o(i.nrfx_ppi_group_free) refers to nrfx_ppi.o(.data) for m_groups_allocated
    nrfx_saadc.o(i.SAADC_IRQHandler) refers to nrfx_saadc.o(i.nrf_saadc_event_check) for nrf_saadc_event_check
    nrfx_saadc.o(i.SAADC_IRQHandler) refers to nrfx_saadc.o(i.nrf_saadc_event_clear) for nrf_saadc_event_clear
    nrfx_saadc.o(i.SAADC_IRQHandler) refers to nrfx_saadc.o(i.nrf_saadc_task_trigger) for nrf_saadc_task_trigger
    nrfx_saadc.o(i.SAADC_IRQHandler) refers to nrfx_saadc.o(i.nrf_saadc_buffer_init) for nrf_saadc_buffer_init
    nrfx_saadc.o(i.SAADC_IRQHandler) refers to nrfx_saadc.o(.bss) for m_cb
    nrfx_saadc.o(i.nrfx_coredep_delay_us) refers to nrfx_saadc.o(.constdata) for delay_machine_code
    nrfx_saadc.o(i.nrfx_saadc_abort) refers to nrfx_saadc.o(i.nrfx_saadc_is_busy) for nrfx_saadc_is_busy
    nrfx_saadc.o(i.nrfx_saadc_abort) refers to nrfx_saadc.o(i.nrf_saadc_event_clear) for nrf_saadc_event_clear
    nrfx_saadc.o(i.nrfx_saadc_abort) refers to nrfx_saadc.o(i.nrf_saadc_int_enable) for nrf_saadc_int_enable
    nrfx_saadc.o(i.nrfx_saadc_abort) refers to nrfx_saadc.o(i.nrf_saadc_task_trigger) for nrf_saadc_task_trigger
    nrfx_saadc.o(i.nrfx_saadc_abort) refers to nrfx_saadc.o(i.nrfx_coredep_delay_us) for nrfx_coredep_delay_us
    nrfx_saadc.o(i.nrfx_saadc_abort) refers to nrfx_saadc.o(i.nrf_saadc_int_disable) for nrf_saadc_int_disable
    nrfx_saadc.o(i.nrfx_saadc_abort) refers to nrfx_saadc.o(.bss) for m_cb
    nrfx_saadc.o(i.nrfx_saadc_buffer_convert) refers to nrfx_saadc.o(i.nrf_saadc_int_disable) for nrf_saadc_int_disable
    nrfx_saadc.o(i.nrfx_saadc_buffer_convert) refers to nrfx_saadc.o(i.nrf_saadc_int_enable) for nrf_saadc_int_enable
    nrfx_saadc.o(i.nrfx_saadc_buffer_convert) refers to nrfx_saadc.o(i.nrf_saadc_event_check) for nrf_saadc_event_check
    nrfx_saadc.o(i.nrfx_saadc_buffer_convert) refers to nrfx_saadc.o(i.nrf_saadc_event_clear) for nrf_saadc_event_clear
    nrfx_saadc.o(i.nrfx_saadc_buffer_convert) refers to nrfx_saadc.o(i.nrf_saadc_buffer_init) for nrf_saadc_buffer_init
    nrfx_saadc.o(i.nrfx_saadc_buffer_convert) refers to nrfx_saadc.o(i.nrf_saadc_task_trigger) for nrf_saadc_task_trigger
    nrfx_saadc.o(i.nrfx_saadc_buffer_convert) refers to nrfx_saadc.o(.bss) for m_cb
    nrfx_saadc.o(i.nrfx_saadc_calibrate_offset) refers to nrfx_saadc.o(i.nrf_saadc_event_clear) for nrf_saadc_event_clear
    nrfx_saadc.o(i.nrfx_saadc_calibrate_offset) refers to nrfx_saadc.o(i.nrf_saadc_int_enable) for nrf_saadc_int_enable
    nrfx_saadc.o(i.nrfx_saadc_calibrate_offset) refers to nrfx_saadc.o(i.nrf_saadc_task_trigger) for nrf_saadc_task_trigger
    nrfx_saadc.o(i.nrfx_saadc_calibrate_offset) refers to nrfx_saadc.o(.bss) for m_cb
    nrfx_saadc.o(i.nrfx_saadc_channel_init) refers to nrfx_saadc.o(i.nrf_saadc_channel_input_set) for nrf_saadc_channel_input_set
    nrfx_saadc.o(i.nrfx_saadc_channel_init) refers to nrfx_saadc.o(.bss) for m_cb
    nrfx_saadc.o(i.nrfx_saadc_channel_uninit) refers to nrfx_saadc.o(i.nrf_saadc_channel_input_set) for nrf_saadc_channel_input_set
    nrfx_saadc.o(i.nrfx_saadc_channel_uninit) refers to nrfx_saadc.o(i.nrfx_saadc_limits_set) for nrfx_saadc_limits_set
    nrfx_saadc.o(i.nrfx_saadc_channel_uninit) refers to nrfx_saadc.o(.bss) for m_cb
    nrfx_saadc.o(i.nrfx_saadc_init) refers to nrfx_saadc.o(i.nrf_saadc_int_disable) for nrf_saadc_int_disable
    nrfx_saadc.o(i.nrfx_saadc_init) refers to nrfx_saadc.o(i.nrf_saadc_event_clear) for nrf_saadc_event_clear
    nrfx_saadc.o(i.nrfx_saadc_init) refers to nrfx_saadc.o(i.nrf_saadc_int_enable) for nrf_saadc_int_enable
    nrfx_saadc.o(i.nrfx_saadc_init) refers to nrfx_saadc.o(.bss) for m_cb
    nrfx_saadc.o(i.nrfx_saadc_is_busy) refers to nrfx_saadc.o(.bss) for m_cb
    nrfx_saadc.o(i.nrfx_saadc_limits_set) refers to nrfx_saadc.o(i.nrf_saadc_limit_int_get) for nrf_saadc_limit_int_get
    nrfx_saadc.o(i.nrfx_saadc_limits_set) refers to nrfx_saadc.o(i.nrf_saadc_int_disable) for nrf_saadc_int_disable
    nrfx_saadc.o(i.nrfx_saadc_limits_set) refers to nrfx_saadc.o(i.nrf_saadc_int_enable) for nrf_saadc_int_enable
    nrfx_saadc.o(i.nrfx_saadc_limits_set) refers to nrfx_saadc.o(.bss) for m_cb
    nrfx_saadc.o(i.nrfx_saadc_sample) refers to nrfx_saadc.o(i.nrf_saadc_task_trigger) for nrf_saadc_task_trigger
    nrfx_saadc.o(i.nrfx_saadc_sample) refers to nrfx_saadc.o(.bss) for m_cb
    nrfx_saadc.o(i.nrfx_saadc_sample_convert) refers to nrfx_saadc.o(i.nrf_saadc_int_disable) for nrf_saadc_int_disable
    nrfx_saadc.o(i.nrfx_saadc_sample_convert) refers to nrfx_saadc.o(i.nrf_saadc_buffer_init) for nrf_saadc_buffer_init
    nrfx_saadc.o(i.nrfx_saadc_sample_convert) refers to nrfx_saadc.o(i.nrf_saadc_channel_input_set) for nrf_saadc_channel_input_set
    nrfx_saadc.o(i.nrfx_saadc_sample_convert) refers to nrfx_saadc.o(i.nrf_saadc_task_trigger) for nrf_saadc_task_trigger
    nrfx_saadc.o(i.nrfx_saadc_sample_convert) refers to nrfx_saadc.o(i.nrf_saadc_event_check) for nrf_saadc_event_check
    nrfx_saadc.o(i.nrfx_saadc_sample_convert) refers to nrfx_saadc.o(i.nrfx_coredep_delay_us) for nrfx_coredep_delay_us
    nrfx_saadc.o(i.nrfx_saadc_sample_convert) refers to nrfx_saadc.o(i.nrf_saadc_event_clear) for nrf_saadc_event_clear
    nrfx_saadc.o(i.nrfx_saadc_sample_convert) refers to nrfx_saadc.o(i.nrf_saadc_int_enable) for nrf_saadc_int_enable
    nrfx_saadc.o(i.nrfx_saadc_sample_convert) refers to nrfx_saadc.o(.bss) for m_cb
    nrfx_saadc.o(i.nrfx_saadc_sample_task_get) refers to nrfx_saadc.o(.bss) for m_cb
    nrfx_saadc.o(i.nrfx_saadc_uninit) refers to nrfx_saadc.o(i.nrf_saadc_int_disable) for nrf_saadc_int_disable
    nrfx_saadc.o(i.nrfx_saadc_uninit) refers to nrfx_saadc.o(i.nrf_saadc_task_trigger) for nrf_saadc_task_trigger
    nrfx_saadc.o(i.nrfx_saadc_uninit) refers to nrfx_saadc.o(i.nrf_saadc_event_check) for nrf_saadc_event_check
    nrfx_saadc.o(i.nrfx_saadc_uninit) refers to nrfx_saadc.o(i.nrfx_coredep_delay_us) for nrfx_coredep_delay_us
    nrfx_saadc.o(i.nrfx_saadc_uninit) refers to nrfx_saadc.o(i.nrfx_saadc_channel_uninit) for nrfx_saadc_channel_uninit
    nrfx_saadc.o(i.nrfx_saadc_uninit) refers to nrfx_saadc.o(.bss) for m_cb
    nrfx_timer.o(i.TIMER0_IRQHandler) refers to nrfx_timer.o(i.irq_handler) for irq_handler
    nrfx_timer.o(i.TIMER0_IRQHandler) refers to nrfx_timer.o(.bss) for m_cb
    nrfx_timer.o(i.irq_handler) refers to nrfx_timer.o(i.nrf_timer_compare_event_get) for nrf_timer_compare_event_get
    nrfx_timer.o(i.irq_handler) refers to nrfx_timer.o(i.nrf_timer_compare_int_get) for nrf_timer_compare_int_get
    nrfx_timer.o(i.irq_handler) refers to nrfx_timer.o(i.nrf_timer_event_clear) for nrf_timer_event_clear
    nrfx_timer.o(i.nrfx_timer_capture) refers to nrfx_timer.o(i.nrf_timer_task_trigger) for nrf_timer_task_trigger
    nrfx_timer.o(i.nrfx_timer_clear) refers to nrfx_timer.o(i.nrf_timer_task_trigger) for nrf_timer_task_trigger
    nrfx_timer.o(i.nrfx_timer_compare) refers to nrfx_timer.o(i.nrf_timer_compare_int_get) for nrf_timer_compare_int_get
    nrfx_timer.o(i.nrfx_timer_compare) refers to nrfx_timer.o(i.nrf_timer_compare_event_get) for nrf_timer_compare_event_get
    nrfx_timer.o(i.nrfx_timer_compare) refers to nrfx_timer.o(i.nrf_timer_event_clear) for nrf_timer_event_clear
    nrfx_timer.o(i.nrfx_timer_compare) refers to nrfx_timer.o(i.nrf_timer_int_enable) for nrf_timer_int_enable
    nrfx_timer.o(i.nrfx_timer_compare) refers to nrfx_timer.o(i.nrf_timer_int_disable) for nrf_timer_int_disable
    nrfx_timer.o(i.nrfx_timer_compare_int_disable) refers to nrfx_timer.o(i.nrf_timer_compare_int_get) for nrf_timer_compare_int_get
    nrfx_timer.o(i.nrfx_timer_compare_int_disable) refers to nrfx_timer.o(i.nrf_timer_int_disable) for nrf_timer_int_disable
    nrfx_timer.o(i.nrfx_timer_compare_int_enable) refers to nrfx_timer.o(i.nrf_timer_compare_event_get) for nrf_timer_compare_event_get
    nrfx_timer.o(i.nrfx_timer_compare_int_enable) refers to nrfx_timer.o(i.nrf_timer_event_clear) for nrf_timer_event_clear
    nrfx_timer.o(i.nrfx_timer_compare_int_enable) refers to nrfx_timer.o(i.nrf_timer_compare_int_get) for nrf_timer_compare_int_get
    nrfx_timer.o(i.nrfx_timer_compare_int_enable) refers to nrfx_timer.o(i.nrf_timer_int_enable) for nrf_timer_int_enable
    nrfx_timer.o(i.nrfx_timer_disable) refers to nrfx_timer.o(i.nrf_timer_task_trigger) for nrf_timer_task_trigger
    nrfx_timer.o(i.nrfx_timer_disable) refers to nrfx_timer.o(.bss) for m_cb
    nrfx_timer.o(i.nrfx_timer_enable) refers to nrfx_timer.o(i.nrf_timer_task_trigger) for nrf_timer_task_trigger
    nrfx_timer.o(i.nrfx_timer_enable) refers to nrfx_timer.o(.bss) for m_cb
    nrfx_timer.o(i.nrfx_timer_extended_compare) refers to nrfx_timer.o(i.nrf_timer_shorts_disable) for nrf_timer_shorts_disable
    nrfx_timer.o(i.nrfx_timer_extended_compare) refers to nrfx_timer.o(i.nrfx_timer_compare) for nrfx_timer_compare
    nrfx_timer.o(i.nrfx_timer_increment) refers to nrfx_timer.o(i.nrf_timer_task_trigger) for nrf_timer_task_trigger
    nrfx_timer.o(i.nrfx_timer_init) refers to nrfx_timer.o(i.nrf_timer_compare_event_get) for nrf_timer_compare_event_get
    nrfx_timer.o(i.nrfx_timer_init) refers to nrfx_timer.o(i.nrf_timer_event_clear) for nrf_timer_event_clear
    nrfx_timer.o(i.nrfx_timer_init) refers to nrfx_timer.o(i.nrfx_get_irq_number) for nrfx_get_irq_number
    nrfx_timer.o(i.nrfx_timer_init) refers to nrfx_timer.o(.bss) for m_cb
    nrfx_timer.o(i.nrfx_timer_is_enabled) refers to nrfx_timer.o(.bss) for m_cb
    nrfx_timer.o(i.nrfx_timer_pause) refers to nrfx_timer.o(i.nrf_timer_task_trigger) for nrf_timer_task_trigger
    nrfx_timer.o(i.nrfx_timer_resume) refers to nrfx_timer.o(i.nrf_timer_task_trigger) for nrf_timer_task_trigger
    nrfx_timer.o(i.nrfx_timer_uninit) refers to nrfx_timer.o(i.nrfx_get_irq_number) for nrfx_get_irq_number
    nrfx_timer.o(i.nrfx_timer_uninit) refers to nrfx_timer.o(i.nrf_timer_shorts_disable) for nrf_timer_shorts_disable
    nrfx_timer.o(i.nrfx_timer_uninit) refers to nrfx_timer.o(i.nrf_timer_int_disable) for nrf_timer_int_disable
    nrfx_timer.o(i.nrfx_timer_uninit) refers to nrfx_timer.o(i.nrfx_timer_disable) for nrfx_timer_disable
    nrfx_timer.o(i.nrfx_timer_uninit) refers to nrfx_timer.o(.bss) for m_cb
    nrf_atomic.o(i.nrf_atomic_flag_clear) refers to nrf_atomic.o(i.nrf_atomic_u32_and) for nrf_atomic_u32_and
    nrf_atomic.o(i.nrf_atomic_flag_clear_fetch) refers to nrf_atomic.o(i.nrf_atomic_u32_fetch_and) for nrf_atomic_u32_fetch_and
    nrf_atomic.o(i.nrf_atomic_flag_set) refers to nrf_atomic.o(i.nrf_atomic_u32_or) for nrf_atomic_u32_or
    nrf_atomic.o(i.nrf_atomic_flag_set_fetch) refers to nrf_atomic.o(i.nrf_atomic_u32_fetch_or) for nrf_atomic_u32_fetch_or
    nrf_atomic.o(i.nrf_atomic_u32_add) refers to nrf_atomic.o(.emb_text) for __asm___12_nrf_atomic_c_85ca2469__nrf_atomic_internal_add
    nrf_atomic.o(i.nrf_atomic_u32_and) refers to nrf_atomic.o(.emb_text) for __asm___12_nrf_atomic_c_85ca2469__nrf_atomic_internal_and
    nrf_atomic.o(i.nrf_atomic_u32_cmp_exch) refers to nrf_atomic.o(.emb_text) for __asm___12_nrf_atomic_c_85ca2469__nrf_atomic_internal_cmp_exch
    nrf_atomic.o(i.nrf_atomic_u32_fetch_add) refers to nrf_atomic.o(.emb_text) for __asm___12_nrf_atomic_c_85ca2469__nrf_atomic_internal_add
    nrf_atomic.o(i.nrf_atomic_u32_fetch_and) refers to nrf_atomic.o(.emb_text) for __asm___12_nrf_atomic_c_85ca2469__nrf_atomic_internal_and
    nrf_atomic.o(i.nrf_atomic_u32_fetch_or) refers to nrf_atomic.o(.emb_text) for __asm___12_nrf_atomic_c_85ca2469__nrf_atomic_internal_orr
    nrf_atomic.o(i.nrf_atomic_u32_fetch_store) refers to nrf_atomic.o(.emb_text) for __asm___12_nrf_atomic_c_85ca2469__nrf_atomic_internal_mov
    nrf_atomic.o(i.nrf_atomic_u32_fetch_sub) refers to nrf_atomic.o(.emb_text) for __asm___12_nrf_atomic_c_85ca2469__nrf_atomic_internal_sub
    nrf_atomic.o(i.nrf_atomic_u32_fetch_sub_hs) refers to nrf_atomic.o(.emb_text) for __asm___12_nrf_atomic_c_85ca2469__nrf_atomic_internal_sub_hs
    nrf_atomic.o(i.nrf_atomic_u32_fetch_xor) refers to nrf_atomic.o(.emb_text) for __asm___12_nrf_atomic_c_85ca2469__nrf_atomic_internal_eor
    nrf_atomic.o(i.nrf_atomic_u32_or) refers to nrf_atomic.o(.emb_text) for __asm___12_nrf_atomic_c_85ca2469__nrf_atomic_internal_orr
    nrf_atomic.o(i.nrf_atomic_u32_store) refers to nrf_atomic.o(.emb_text) for __asm___12_nrf_atomic_c_85ca2469__nrf_atomic_internal_mov
    nrf_atomic.o(i.nrf_atomic_u32_sub) refers to nrf_atomic.o(.emb_text) for __asm___12_nrf_atomic_c_85ca2469__nrf_atomic_internal_sub
    nrf_atomic.o(i.nrf_atomic_u32_sub_hs) refers to nrf_atomic.o(.emb_text) for __asm___12_nrf_atomic_c_85ca2469__nrf_atomic_internal_sub_hs
    nrf_atomic.o(i.nrf_atomic_u32_xor) refers to nrf_atomic.o(.emb_text) for __asm___12_nrf_atomic_c_85ca2469__nrf_atomic_internal_eor
    nrfx_twi.o(i.SPIM1_SPIS1_TWIM1_TWIS1_SPI1_TWI1_IRQHandler) refers to nrfx_twi.o(i.twi_irq_handler) for twi_irq_handler
    nrfx_twi.o(i.SPIM1_SPIS1_TWIM1_TWIS1_SPI1_TWI1_IRQHandler) refers to nrfx_twi.o(.bss) for m_cb
    nrfx_twi.o(i.nrf_gpio_cfg_default) refers to nrfx_twi.o(i.nrf_gpio_cfg) for nrf_gpio_cfg
    nrfx_twi.o(i.nrfx_twi_data_count_get) refers to nrfx_twi.o(.bss) for m_cb
    nrfx_twi.o(i.nrfx_twi_disable) refers to nrfx_twi.o(i.nrf_twi_int_disable) for nrf_twi_int_disable
    nrfx_twi.o(i.nrfx_twi_disable) refers to nrfx_twi.o(.bss) for m_cb
    nrfx_twi.o(i.nrfx_twi_enable) refers to nrfx_twi.o(.bss) for m_cb
    nrfx_twi.o(i.nrfx_twi_init) refers to nrfx_twi.o(i.nrf_gpio_cfg) for nrf_gpio_cfg
    nrfx_twi.o(i.nrfx_twi_init) refers to nrfx_twi.o(i.nrfx_get_irq_number) for nrfx_get_irq_number
    nrfx_twi.o(i.nrfx_twi_init) refers to nrfx_twi.o(.bss) for m_cb
    nrfx_twi.o(i.nrfx_twi_is_busy) refers to nrfx_twi.o(.bss) for m_cb
    nrfx_twi.o(i.nrfx_twi_rx) refers to memcpya.o(.text) for __aeabi_memcpy4
    nrfx_twi.o(i.nrfx_twi_rx) refers to nrfx_twi.o(i.nrfx_twi_xfer) for nrfx_twi_xfer
    nrfx_twi.o(i.nrfx_twi_rx) refers to nrfx_twi.o(.constdata) for .constdata
    nrfx_twi.o(i.nrfx_twi_tx) refers to memseta.o(.text) for __aeabi_memclr4
    nrfx_twi.o(i.nrfx_twi_tx) refers to nrfx_twi.o(i.nrfx_twi_xfer) for nrfx_twi_xfer
    nrfx_twi.o(i.nrfx_twi_uninit) refers to nrfx_twi.o(i.nrfx_get_irq_number) for nrfx_get_irq_number
    nrfx_twi.o(i.nrfx_twi_uninit) refers to nrfx_twi.o(i.nrfx_twi_disable) for nrfx_twi_disable
    nrfx_twi.o(i.nrfx_twi_uninit) refers to nrfx_twi.o(i.nrf_gpio_cfg_default) for nrf_gpio_cfg_default
    nrfx_twi.o(i.nrfx_twi_uninit) refers to nrfx_twi.o(.bss) for m_cb
    nrfx_twi.o(i.nrfx_twi_xfer) refers to nrfx_twi.o(i.twi_xfer) for twi_xfer
    nrfx_twi.o(i.nrfx_twi_xfer) refers to nrfx_twi.o(.bss) for m_cb
    nrfx_twi.o(i.twi_irq_handler) refers to nrfx_twi.o(i.twi_transfer) for twi_transfer
    nrfx_twi.o(i.twi_irq_handler) refers to nrfx_twi.o(i.twi_tx_start_transfer) for twi_tx_start_transfer
    nrfx_twi.o(i.twi_irq_handler) refers to nrfx_twi.o(i.twi_rx_start_transfer) for twi_rx_start_transfer
    nrfx_twi.o(i.twi_irq_handler) refers to memcpya.o(.text) for __aeabi_memcpy4
    nrfx_twi.o(i.twi_irq_handler) refers to nrfx_twi.o(i.nrf_twi_errorsrc_get_and_clear) for nrf_twi_errorsrc_get_and_clear
    nrfx_twi.o(i.twi_receive_byte) refers to nrfx_twi.o(i.nrf_twi_shorts_set) for nrf_twi_shorts_set
    nrfx_twi.o(i.twi_receive_byte) refers to nrfx_twi.o(i.nrf_twi_task_trigger) for nrf_twi_task_trigger
    nrfx_twi.o(i.twi_rx_start_transfer) refers to nrfx_twi.o(i.nrf_twi_event_clear) for nrf_twi_event_clear
    nrfx_twi.o(i.twi_rx_start_transfer) refers to nrfx_twi.o(i.nrf_twi_shorts_set) for nrf_twi_shorts_set
    nrfx_twi.o(i.twi_rx_start_transfer) refers to nrfx_twi.o(i.nrf_twi_task_trigger) for nrf_twi_task_trigger
    nrfx_twi.o(i.twi_rx_start_transfer) refers to nrfx_twi.o(i.nrf_twi_int_enable) for nrf_twi_int_enable
    nrfx_twi.o(i.twi_rx_start_transfer) refers to nrfx_twi.o(i.twi_transfer) for twi_transfer
    nrfx_twi.o(i.twi_rx_start_transfer) refers to nrfx_twi.o(i.nrf_twi_errorsrc_get_and_clear) for nrf_twi_errorsrc_get_and_clear
    nrfx_twi.o(i.twi_rx_start_transfer) refers to nrfx_twi.o(i.twi_process_error) for twi_process_error
    nrfx_twi.o(i.twi_send_byte) refers to nrfx_twi.o(i.nrf_twi_task_trigger) for nrf_twi_task_trigger
    nrfx_twi.o(i.twi_transfer) refers to nrfx_twi.o(i.nrf_twi_event_clear) for nrf_twi_event_clear
    nrfx_twi.o(i.twi_transfer) refers to nrfx_twi.o(i.nrf_twi_event_check) for nrf_twi_event_check
    nrfx_twi.o(i.twi_transfer) refers to nrfx_twi.o(i.nrf_twi_task_trigger) for nrf_twi_task_trigger
    nrfx_twi.o(i.twi_transfer) refers to nrfx_twi.o(i.twi_send_byte) for twi_send_byte
    nrfx_twi.o(i.twi_transfer) refers to nrfx_twi.o(i.twi_receive_byte) for twi_receive_byte
    nrfx_twi.o(i.twi_tx_start_transfer) refers to nrfx_twi.o(i.nrf_twi_event_clear) for nrf_twi_event_clear
    nrfx_twi.o(i.twi_tx_start_transfer) refers to nrfx_twi.o(i.nrf_twi_shorts_set) for nrf_twi_shorts_set
    nrfx_twi.o(i.twi_tx_start_transfer) refers to nrfx_twi.o(i.nrf_twi_task_trigger) for nrf_twi_task_trigger
    nrfx_twi.o(i.twi_tx_start_transfer) refers to nrfx_twi.o(i.twi_send_byte) for twi_send_byte
    nrfx_twi.o(i.twi_tx_start_transfer) refers to nrfx_twi.o(i.nrf_twi_int_enable) for nrf_twi_int_enable
    nrfx_twi.o(i.twi_tx_start_transfer) refers to nrfx_twi.o(i.twi_transfer) for twi_transfer
    nrfx_twi.o(i.twi_tx_start_transfer) refers to nrfx_twi.o(i.nrf_twi_errorsrc_get_and_clear) for nrf_twi_errorsrc_get_and_clear
    nrfx_twi.o(i.twi_tx_start_transfer) refers to nrfx_twi.o(i.twi_process_error) for twi_process_error
    nrfx_twi.o(i.twi_xfer) refers to nrfx_twi.o(i.nrf_twi_int_disable) for nrf_twi_int_disable
    nrfx_twi.o(i.twi_xfer) refers to nrfx_twi.o(i.nrf_twi_int_enable) for nrf_twi_int_enable
    nrfx_twi.o(i.twi_xfer) refers to memcpya.o(.text) for __aeabi_memcpy4
    nrfx_twi.o(i.twi_xfer) refers to nrfx_twi.o(i.twi_tx_start_transfer) for twi_tx_start_transfer
    nrfx_twi.o(i.twi_xfer) refers to nrfx_twi.o(i.twi_rx_start_transfer) for twi_rx_start_transfer
    nrf_drv_twi.o(i.nrf_drv_twi_init) refers to nrf_drv_twi.o(i.twi_clear_bus) for twi_clear_bus
    nrf_drv_twi.o(i.nrf_drv_twi_init) refers to nrfx_twi.o(i.nrfx_twi_init) for nrfx_twi_init
    nrf_drv_twi.o(i.nrf_drv_twi_init) refers to nrf_drv_twi.o(.data) for m_handlers
    nrf_drv_twi.o(i.nrf_drv_twi_init) refers to nrf_drv_twi.o(i.twi_evt_handler) for twi_evt_handler
    nrf_drv_twi.o(i.nrfx_coredep_delay_us) refers to nrf_drv_twi.o(.constdata) for delay_machine_code
    nrf_drv_twi.o(i.twi_clear_bus) refers to nrf_drv_twi.o(i.nrf_gpio_pin_set) for nrf_gpio_pin_set
    nrf_drv_twi.o(i.twi_clear_bus) refers to nrf_drv_twi.o(i.nrfx_coredep_delay_us) for nrfx_coredep_delay_us
    nrf_drv_twi.o(i.twi_clear_bus) refers to nrf_drv_twi.o(i.nrf_gpio_pin_clear) for nrf_gpio_pin_clear
    nrf_drv_twi.o(i.twi_evt_handler) refers to nrf_drv_twi.o(.data) for m_contexts
    nrf_drv_twi.o(i.twim_evt_handler) refers to nrf_drv_twi.o(.data) for m_contexts
    nrf_drv_spis.o(i.nrf_drv_spis_init) refers to nrfx_spis.o(i.nrfx_spis_init) for nrfx_spis_init
    nrf_drv_spis.o(i.nrf_drv_spis_init) refers to nrf_drv_spis.o(.bss) for m_handlers
    nrf_drv_spis.o(i.nrf_drv_spis_init) refers to nrf_drv_spis.o(i.spis_event_handler) for spis_event_handler
    nrf_drv_spis.o(i.spis_event_handler) refers to nrf_drv_spis.o(.bss) for m_handlers
    nrfx_spis.o(i.SPIM0_SPIS0_TWIM0_TWIS0_SPI0_TWI0_IRQHandler) refers to nrfx_spis.o(i.spis_irq_handler) for spis_irq_handler
    nrfx_spis.o(i.SPIM0_SPIS0_TWIM0_TWIS0_SPI0_TWI0_IRQHandler) refers to nrfx_spis.o(.bss) for m_cb
    nrfx_spis.o(i.SPIM2_SPIS2_SPI2_IRQHandler) refers to nrfx_spis.o(i.spis_irq_handler) for spis_irq_handler
    nrfx_spis.o(i.SPIM2_SPIS2_SPI2_IRQHandler) refers to nrfx_spis.o(.bss) for m_cb
    nrfx_spis.o(i.nrfx_spis_buffers_set) refers to nrfx_spis.o(i.nrfx_is_in_ram) for nrfx_is_in_ram
    nrfx_spis.o(i.nrfx_spis_buffers_set) refers to nrfx_spis.o(i.spis_state_change) for spis_state_change
    nrfx_spis.o(i.nrfx_spis_buffers_set) refers to nrfx_spis.o(.bss) for m_cb
    nrfx_spis.o(i.nrfx_spis_init) refers to nrfx_spis.o(i.nrf_gpio_cfg) for nrf_gpio_cfg
    nrfx_spis.o(i.nrfx_spis_init) refers to nrfx_spis.o(i.nrf_spis_rx_buffer_set) for nrf_spis_rx_buffer_set
    nrfx_spis.o(i.nrfx_spis_init) refers to nrfx_spis.o(i.nrf_spis_tx_buffer_set) for nrf_spis_tx_buffer_set
    nrfx_spis.o(i.nrfx_spis_init) refers to nrfx_spis.o(i.nrf_spis_event_clear) for nrf_spis_event_clear
    nrfx_spis.o(i.nrfx_spis_init) refers to nrfx_gpiote.o(i.nrfx_gpiote_init) for nrfx_gpiote_init
    nrfx_spis.o(i.nrfx_spis_init) refers to nrfx_gpiote.o(i.nrfx_gpiote_in_init) for nrfx_gpiote_in_init
    nrfx_spis.o(i.nrfx_spis_init) refers to nrfx_gpiote.o(i.nrfx_gpiote_in_event_enable) for nrfx_gpiote_in_event_enable
    nrfx_spis.o(i.nrfx_spis_init) refers to nrfx_spis.o(i.nrfx_get_irq_number) for nrfx_get_irq_number
    nrfx_spis.o(i.nrfx_spis_init) refers to nrfx_spis.o(.bss) for m_cb
    nrfx_spis.o(i.nrfx_spis_init) refers to nrfx_spis.o(i.csn_event_handler) for csn_event_handler
    nrfx_spis.o(i.nrfx_spis_init) refers to nrfx_spis.o(.constdata) for csn_gpiote_config
    nrfx_spis.o(i.nrfx_spis_uninit) refers to nrfx_spis.o(i.nrfx_get_irq_number) for nrfx_get_irq_number
    nrfx_spis.o(i.nrfx_spis_uninit) refers to nrfx_spis.o(.bss) for m_cb
    nrfx_spis.o(i.spis_irq_handler) refers to nrfx_spis.o(i.nrf_spis_event_check) for nrf_spis_event_check
    nrfx_spis.o(i.spis_irq_handler) refers to nrfx_spis.o(i.nrf_spis_event_clear) for nrf_spis_event_clear
    nrfx_spis.o(i.spis_irq_handler) refers to nrfx_spis.o(i.nrf_spis_tx_buffer_set) for nrf_spis_tx_buffer_set
    nrfx_spis.o(i.spis_irq_handler) refers to nrfx_spis.o(i.nrf_spis_rx_buffer_set) for nrf_spis_rx_buffer_set
    nrfx_spis.o(i.spis_irq_handler) refers to nrfx_spis.o(i.nrf_spis_task_trigger) for nrf_spis_task_trigger
    nrfx_spis.o(i.spis_irq_handler) refers to nrfx_spis.o(i.spis_state_change) for spis_state_change
    nrfx_spis.o(i.spis_state_change) refers to nrfx_spis.o(i.spis_state_entry_action_execute) for spis_state_entry_action_execute
    nrfx_spis.o(i.spis_state_entry_action_execute) refers to nrfx_spis.o(i.nrf_spis_task_trigger) for nrf_spis_task_trigger
    nrfx_pwm.o(i.PWM0_IRQHandler) refers to nrfx_pwm.o(i.irq_handler) for irq_handler
    nrfx_pwm.o(i.PWM0_IRQHandler) refers to nrfx_pwm.o(.data) for m_cb
    nrfx_pwm.o(i.irq_handler) refers to nrfx_pwm.o(i.nrf_pwm_event_check) for nrf_pwm_event_check
    nrfx_pwm.o(i.irq_handler) refers to nrfx_pwm.o(i.nrf_pwm_event_clear) for nrf_pwm_event_clear
    nrfx_pwm.o(i.nrfx_pwm_complex_playback) refers to nrfx_pwm.o(i.nrf_pwm_sequence_set) for nrf_pwm_sequence_set
    nrfx_pwm.o(i.nrfx_pwm_complex_playback) refers to nrfx_pwm.o(i.nrf_pwm_loop_set) for nrf_pwm_loop_set
    nrfx_pwm.o(i.nrfx_pwm_complex_playback) refers to nrfx_pwm.o(i.nrf_pwm_shorts_set) for nrf_pwm_shorts_set
    nrfx_pwm.o(i.nrfx_pwm_complex_playback) refers to nrfx_pwm.o(i.start_playback) for start_playback
    nrfx_pwm.o(i.nrfx_pwm_complex_playback) refers to nrfx_pwm.o(.data) for m_cb
    nrfx_pwm.o(i.nrfx_pwm_init) refers to nrfx_pwm.o(i.configure_pins) for configure_pins
    nrfx_pwm.o(i.nrfx_pwm_init) refers to nrfx_pwm.o(i.nrf_pwm_shorts_set) for nrf_pwm_shorts_set
    nrfx_pwm.o(i.nrfx_pwm_init) refers to nrfx_pwm.o(i.nrf_pwm_int_set) for nrf_pwm_int_set
    nrfx_pwm.o(i.nrfx_pwm_init) refers to nrfx_pwm.o(i.nrf_pwm_event_clear) for nrf_pwm_event_clear
    nrfx_pwm.o(i.nrfx_pwm_init) refers to nrfx_pwm.o(i.nrfx_get_irq_number) for nrfx_get_irq_number
    nrfx_pwm.o(i.nrfx_pwm_init) refers to nrfx_pwm.o(.data) for m_cb
    nrfx_pwm.o(i.nrfx_pwm_is_stopped) refers to nrfx_pwm.o(i.nrf_pwm_event_check) for nrf_pwm_event_check
    nrfx_pwm.o(i.nrfx_pwm_is_stopped) refers to nrfx_pwm.o(.data) for m_cb
    nrfx_pwm.o(i.nrfx_pwm_simple_playback) refers to nrfx_pwm.o(i.nrf_pwm_sequence_set) for nrf_pwm_sequence_set
    nrfx_pwm.o(i.nrfx_pwm_simple_playback) refers to nrfx_pwm.o(i.nrf_pwm_loop_set) for nrf_pwm_loop_set
    nrfx_pwm.o(i.nrfx_pwm_simple_playback) refers to nrfx_pwm.o(i.nrf_pwm_shorts_set) for nrf_pwm_shorts_set
    nrfx_pwm.o(i.nrfx_pwm_simple_playback) refers to nrfx_pwm.o(i.start_playback) for start_playback
    nrfx_pwm.o(i.nrfx_pwm_simple_playback) refers to nrfx_pwm.o(.data) for m_cb
    nrfx_pwm.o(i.nrfx_pwm_stop) refers to nrfx_pwm.o(i.nrfx_pwm_is_stopped) for nrfx_pwm_is_stopped
    nrfx_pwm.o(i.nrfx_pwm_stop) refers to nrfx_pwm.o(i.nrf_pwm_task_trigger) for nrf_pwm_task_trigger
    nrfx_pwm.o(i.nrfx_pwm_uninit) refers to nrfx_pwm.o(i.nrfx_get_irq_number) for nrfx_get_irq_number
    nrfx_pwm.o(i.nrfx_pwm_uninit) refers to nrfx_pwm.o(.data) for m_cb
    nrfx_pwm.o(i.start_playback) refers to nrfx_pwm.o(i.nrf_pwm_int_set) for nrf_pwm_int_set
    nrfx_pwm.o(i.start_playback) refers to nrfx_pwm.o(i.nrf_pwm_event_clear) for nrf_pwm_event_clear
    nrfx_pwm.o(i.start_playback) refers to nrfx_pwm.o(i.nrf_pwm_task_trigger) for nrf_pwm_task_trigger
    rtx_conf_cm.o(.ARM.Collect$$$$000000FF) refers to rt_cmsis.o(i.osKernelInitialize) for osKernelInitialize
    rtx_conf_cm.o(.ARM.Collect$$$$000000FF) refers to rt_cmsis.o(i.osThreadCreate) for osThreadCreate
    rtx_conf_cm.o(.ARM.Collect$$$$000000FF) refers to rt_cmsis.o(i.osKernelStart) for osKernelStart
    rtx_conf_cm.o(.ARM.Collect$$$$000000FF) refers to rtx_conf_cm.o(.constdata) for .constdata
    rtx_conf_cm.o(.constdata) refers to rt_cmsis.o(i.osTimerThread) for osTimerThread
    rtx_conf_cm.o(.constdata) refers to rtx_conf_cm.o(.bss) for os_messageQ_q_osTimerMessageQ
    rtx_conf_cm.o(.constdata) refers to main.o(i.main) for main
    arm_startup_nrf52.o(RESET) refers to arm_startup_nrf52.o(STACK) for __initial_sp
    arm_startup_nrf52.o(RESET) refers to arm_startup_nrf52.o(.text) for Reset_Handler
    arm_startup_nrf52.o(RESET) refers to hal_cm4.o(.emb_text) for SVC_Handler
    arm_startup_nrf52.o(RESET) refers to nrfx_uart.o(i.UARTE0_UART0_IRQHandler) for UARTE0_UART0_IRQHandler
    arm_startup_nrf52.o(RESET) refers to nrfx_spis.o(i.SPIM0_SPIS0_TWIM0_TWIS0_SPI0_TWI0_IRQHandler) for SPIM0_SPIS0_TWIM0_TWIS0_SPI0_TWI0_IRQHandler
    arm_startup_nrf52.o(RESET) refers to nrfx_twi.o(i.SPIM1_SPIS1_TWIM1_TWIS1_SPI1_TWI1_IRQHandler) for SPIM1_SPIS1_TWIM1_TWIS1_SPI1_TWI1_IRQHandler
    arm_startup_nrf52.o(RESET) refers to nrfx_gpiote.o(i.GPIOTE_IRQHandler) for GPIOTE_IRQHandler
    arm_startup_nrf52.o(RESET) refers to nrfx_saadc.o(i.SAADC_IRQHandler) for SAADC_IRQHandler
    arm_startup_nrf52.o(RESET) refers to nrfx_timer.o(i.TIMER0_IRQHandler) for TIMER0_IRQHandler
    arm_startup_nrf52.o(RESET) refers to timer.o(i.TIMER1_IRQHandler) for TIMER1_IRQHandler
    arm_startup_nrf52.o(RESET) refers to nrfx_pwm.o(i.PWM0_IRQHandler) for PWM0_IRQHandler
    arm_startup_nrf52.o(RESET) refers to nrfx_spis.o(i.SPIM2_SPIS2_SPI2_IRQHandler) for SPIM2_SPIS2_SPI2_IRQHandler
    arm_startup_nrf52.o(.text) refers to system_nrf52.o(i.SystemInit) for SystemInit
    arm_startup_nrf52.o(.text) refers to entry.o(.ARM.Collect$$$$00000000) for __main
    system_nrf52.o(i.SystemCoreClockUpdate) refers to system_nrf52.o(.data) for SystemCoreClock
    system_nrf52.o(i.SystemInit) refers to system_nrf52.o(i.errata_12) for errata_12
    system_nrf52.o(i.SystemInit) refers to system_nrf52.o(i.errata_16) for errata_16
    system_nrf52.o(i.SystemInit) refers to system_nrf52.o(i.errata_31) for errata_31
    system_nrf52.o(i.SystemInit) refers to system_nrf52.o(i.errata_32) for errata_32
    system_nrf52.o(i.SystemInit) refers to system_nrf52.o(i.errata_36) for errata_36
    system_nrf52.o(i.SystemInit) refers to system_nrf52.o(i.errata_37) for errata_37
    system_nrf52.o(i.SystemInit) refers to system_nrf52.o(i.errata_57) for errata_57
    system_nrf52.o(i.SystemInit) refers to system_nrf52.o(i.errata_66) for errata_66
    system_nrf52.o(i.SystemInit) refers to system_nrf52.o(i.errata_108) for errata_108
    system_nrf52.o(i.SystemInit) refers to system_nrf52.o(i.errata_136) for errata_136
    system_nrf52.o(i.SystemInit) refers to system_nrf52.o(i.errata_182) for errata_182
    system_nrf52.o(i.SystemInit) refers to system_nrf52.o(i.SystemCoreClockUpdate) for SystemCoreClockUpdate
    arm_pid_init_f32.o(.ARM.exidx.text.arm_pid_init_f32) refers to arm_pid_init_f32.o(.text.arm_pid_init_f32) for [Anonymous Symbol]
    rt_cmsis.o(i.isrMessageGet) refers to rt_mailbox.o(i.isr_mbx_receive) for isr_mbx_receive
    rt_cmsis.o(i.isrMessagePut) refers to rt_mailbox.o(i.rt_mbx_check) for rt_mbx_check
    rt_cmsis.o(i.isrMessagePut) refers to rt_mailbox.o(i.isr_mbx_send) for isr_mbx_send
    rt_cmsis.o(i.isrSemaphoreRelease) refers to rt_cmsis.o(i.rt_id2obj) for rt_id2obj
    rt_cmsis.o(i.isrSemaphoreRelease) refers to rt_semaphore.o(i.isr_sem_send) for isr_sem_send
    rt_cmsis.o(i.isrSignalSet) refers to rt_cmsis.o(i.rt_tid2ptcb) for rt_tid2ptcb
    rt_cmsis.o(i.isrSignalSet) refers to rt_event.o(i.isr_evt_set) for isr_evt_set
    rt_cmsis.o(i.osDelay) refers to rt_cmsis.o(i.svcDelay) for svcDelay
    rt_cmsis.o(i.osKernelInitialize) refers to rt_cmsis.o(i.svcKernelInitialize) for svcKernelInitialize
    rt_cmsis.o(i.osKernelRunning) refers to rt_cmsis.o(i.svcKernelRunning) for svcKernelRunning
    rt_cmsis.o(i.osKernelRunning) refers to rt_cmsis.o(.data) for .data
    rt_cmsis.o(i.osKernelStart) refers to rtx_conf_cm.o(.constdata) for os_flags
    rt_cmsis.o(i.osKernelStart) refers to rt_cmsis.o(i.svcKernelStart) for svcKernelStart
    rt_cmsis.o(i.osKernelSysTick) refers to rt_cmsis.o(i.svcKernelSysTick) for svcKernelSysTick
    rt_cmsis.o(i.osMailAlloc) refers to rt_cmsis.o(i.sysMailAlloc) for sysMailAlloc
    rt_cmsis.o(i.osMailCAlloc) refers to rt_cmsis.o(i.sysMailAlloc) for sysMailAlloc
    rt_cmsis.o(i.osMailCAlloc) refers to rt_cmsis.o(i.rt_clr_box) for rt_clr_box
    rt_cmsis.o(i.osMailCreate) refers to rt_cmsis.o(i.svcMailCreate) for svcMailCreate
    rt_cmsis.o(i.osMailCreate) refers to rt_cmsis.o(.data) for .data
    rt_cmsis.o(i.osMailFree) refers to rt_cmsis.o(i.sysMailFree) for sysMailFree
    rt_cmsis.o(i.osMailGet) refers to rt_cmsis.o(i.osMessageGet) for osMessageGet
    rt_cmsis.o(i.osMailPut) refers to rt_cmsis.o(i.osMessagePut) for osMessagePut
    rt_cmsis.o(i.osMessageCreate) refers to rt_cmsis.o(i.svcMessageCreate) for svcMessageCreate
    rt_cmsis.o(i.osMessageCreate) refers to rt_cmsis.o(.data) for .data
    rt_cmsis.o(i.osMessageGet) refers to rt_cmsis.o(i.isrMessageGet) for isrMessageGet
    rt_cmsis.o(i.osMessageGet) refers to rt_cmsis.o(i.svcMessageGet) for svcMessageGet
    rt_cmsis.o(i.osMessagePut) refers to rt_cmsis.o(i.isrMessagePut) for isrMessagePut
    rt_cmsis.o(i.osMessagePut) refers to rt_cmsis.o(i.svcMessagePut) for svcMessagePut
    rt_cmsis.o(i.osMutexCreate) refers to rt_cmsis.o(i.svcMutexCreate) for svcMutexCreate
    rt_cmsis.o(i.osMutexCreate) refers to rt_cmsis.o(.data) for .data
    rt_cmsis.o(i.osMutexDelete) refers to rt_cmsis.o(i.svcMutexDelete) for svcMutexDelete
    rt_cmsis.o(i.osMutexRelease) refers to rt_cmsis.o(i.svcMutexRelease) for svcMutexRelease
    rt_cmsis.o(i.osMutexWait) refers to rt_cmsis.o(i.svcMutexWait) for svcMutexWait
    rt_cmsis.o(i.osPoolAlloc) refers to rt_cmsis.o(i.sysPoolAlloc) for sysPoolAlloc
    rt_cmsis.o(i.osPoolCAlloc) refers to rt_cmsis.o(i.rt_clr_box) for rt_clr_box
    rt_cmsis.o(i.osPoolCAlloc) refers to rt_cmsis.o(i.sysPoolAlloc) for sysPoolAlloc
    rt_cmsis.o(i.osPoolCreate) refers to rt_cmsis.o(i.svcPoolCreate) for svcPoolCreate
    rt_cmsis.o(i.osPoolCreate) refers to rt_cmsis.o(.data) for .data
    rt_cmsis.o(i.osPoolFree) refers to rt_cmsis.o(i.sysPoolFree) for sysPoolFree
    rt_cmsis.o(i.osSemaphoreCreate) refers to rt_cmsis.o(i.svcSemaphoreCreate) for svcSemaphoreCreate
    rt_cmsis.o(i.osSemaphoreCreate) refers to rt_cmsis.o(.data) for .data
    rt_cmsis.o(i.osSemaphoreDelete) refers to rt_cmsis.o(i.svcSemaphoreDelete) for svcSemaphoreDelete
    rt_cmsis.o(i.osSemaphoreRelease) refers to rt_cmsis.o(i.isrSemaphoreRelease) for isrSemaphoreRelease
    rt_cmsis.o(i.osSemaphoreRelease) refers to rt_cmsis.o(i.svcSemaphoreRelease) for svcSemaphoreRelease
    rt_cmsis.o(i.osSemaphoreWait) refers to rt_cmsis.o(i.svcSemaphoreWait) for svcSemaphoreWait
    rt_cmsis.o(i.osSignalClear) refers to rt_cmsis.o(i.svcSignalClear) for svcSignalClear
    rt_cmsis.o(i.osSignalSet) refers to rt_cmsis.o(i.isrSignalSet) for isrSignalSet
    rt_cmsis.o(i.osSignalSet) refers to rt_cmsis.o(i.svcSignalSet) for svcSignalSet
    rt_cmsis.o(i.osSignalWait) refers to rt_cmsis.o(i.svcSignalWait) for svcSignalWait
    rt_cmsis.o(i.osThreadCreate) refers to rt_cmsis.o(i.svcThreadCreate) for svcThreadCreate
    rt_cmsis.o(i.osThreadCreate) refers to rt_cmsis.o(.data) for .data
    rt_cmsis.o(i.osThreadExit) refers to rt_cmsis.o(i.svcThreadGetId) for svcThreadGetId
    rt_cmsis.o(i.osThreadExit) refers to rt_cmsis.o(i.svcThreadTerminate) for svcThreadTerminate
    rt_cmsis.o(i.osThreadGetId) refers to rt_cmsis.o(i.svcThreadGetId) for svcThreadGetId
    rt_cmsis.o(i.osThreadGetPriority) refers to rt_cmsis.o(i.svcThreadGetPriority) for svcThreadGetPriority
    rt_cmsis.o(i.osThreadSetPriority) refers to rt_cmsis.o(i.svcThreadSetPriority) for svcThreadSetPriority
    rt_cmsis.o(i.osThreadTerminate) refers to rt_cmsis.o(i.svcThreadTerminate) for svcThreadTerminate
    rt_cmsis.o(i.osThreadYield) refers to rt_cmsis.o(i.svcThreadYield) for svcThreadYield
    rt_cmsis.o(i.osTimerCall) refers to rt_cmsis.o(i.svcTimerCall) for svcTimerCall
    rt_cmsis.o(i.osTimerCreate) refers to rt_cmsis.o(i.svcTimerCreate) for svcTimerCreate
    rt_cmsis.o(i.osTimerCreate) refers to rt_cmsis.o(.data) for .data
    rt_cmsis.o(i.osTimerDelete) refers to rt_cmsis.o(i.svcTimerDelete) for svcTimerDelete
    rt_cmsis.o(i.osTimerStart) refers to rt_cmsis.o(i.svcTimerStart) for svcTimerStart
    rt_cmsis.o(i.osTimerStop) refers to rt_cmsis.o(i.svcTimerStop) for svcTimerStop
    rt_cmsis.o(i.osTimerThread) refers to rt_cmsis.o(i.osMessageGet) for osMessageGet
    rt_cmsis.o(i.osTimerThread) refers to rt_cmsis.o(i.osTimerCall) for osTimerCall
    rt_cmsis.o(i.osTimerThread) refers to rtx_conf_cm.o(.data) for osMessageQId_osTimerMessageQ
    rt_cmsis.o(i.os_resume) refers to rt_system.o(i.rt_resume) for rt_resume
    rt_cmsis.o(i.os_suspend) refers to rt_system.o(i.rt_suspend) for rt_suspend
    rt_cmsis.o(i.rt_ms2tick) refers to rtx_conf_cm.o(.constdata) for os_clockrate
    rt_cmsis.o(i.rt_timer_insert) refers to rt_cmsis.o(.data) for .data
    rt_cmsis.o(i.rt_timer_remove) refers to rt_cmsis.o(.data) for .data
    rt_cmsis.o(i.svcDelay) refers to rt_cmsis.o(i.rt_ms2tick) for rt_ms2tick
    rt_cmsis.o(i.svcDelay) refers to rt_time.o(i.rt_dly_wait) for rt_dly_wait
    rt_cmsis.o(i.svcKernelInitialize) refers to rt_memory.o(i.rt_init_mem) for rt_init_mem
    rt_cmsis.o(i.svcKernelInitialize) refers to rt_task.o(i.rt_sys_init) for rt_sys_init
    rt_cmsis.o(i.svcKernelInitialize) refers to rt_cmsis.o(i.svcMessageCreate) for svcMessageCreate
    rt_cmsis.o(i.svcKernelInitialize) refers to rt_cmsis.o(i.svcThreadCreate) for svcThreadCreate
    rt_cmsis.o(i.svcKernelInitialize) refers to rt_cmsis.o(.data) for .data
    rt_cmsis.o(i.svcKernelInitialize) refers to rtx_conf_cm.o(.bss) for os_stack_mem
    rt_cmsis.o(i.svcKernelInitialize) refers to rtx_conf_cm.o(.constdata) for os_stack_sz
    rt_cmsis.o(i.svcKernelInitialize) refers to rt_task.o(.data) for os_tsk
    rt_cmsis.o(i.svcKernelInitialize) refers to rtx_conf_cm.o(.data) for osMessageQId_osTimerMessageQ
    rt_cmsis.o(i.svcKernelRunning) refers to rt_cmsis.o(.data) for .data
    rt_cmsis.o(i.svcKernelStart) refers to rt_task.o(i.rt_tsk_prio) for rt_tsk_prio
    rt_cmsis.o(i.svcKernelStart) refers to rt_task.o(i.rt_sys_start) for rt_sys_start
    rt_cmsis.o(i.svcKernelStart) refers to rt_cmsis.o(.data) for .data
    rt_cmsis.o(i.svcKernelStart) refers to rt_task.o(.data) for os_tsk
    rt_cmsis.o(i.svcKernelSysTick) refers to rt_system.o(i.os_tick_val) for os_tick_val
    rt_cmsis.o(i.svcKernelSysTick) refers to rt_system.o(i.os_tick_ovf) for os_tick_ovf
    rt_cmsis.o(i.svcKernelSysTick) refers to rtx_conf_cm.o(.constdata) for os_trv
    rt_cmsis.o(i.svcKernelSysTick) refers to rt_time.o(.data) for os_time
    rt_cmsis.o(i.svcMailCreate) refers to rt_membox.o(i._init_box) for _init_box
    rt_cmsis.o(i.svcMailCreate) refers to rt_mailbox.o(i.rt_mbx_init) for rt_mbx_init
    rt_cmsis.o(i.svcMessageCreate) refers to rt_mailbox.o(i.rt_mbx_init) for rt_mbx_init
    rt_cmsis.o(i.svcMessageGet) refers to rt_cmsis.o(i.rt_ms2tick) for rt_ms2tick
    rt_cmsis.o(i.svcMessageGet) refers to rt_mailbox.o(i.rt_mbx_wait) for rt_mbx_wait
    rt_cmsis.o(i.svcMessagePut) refers to rt_cmsis.o(i.rt_ms2tick) for rt_ms2tick
    rt_cmsis.o(i.svcMessagePut) refers to rt_mailbox.o(i.rt_mbx_send) for rt_mbx_send
    rt_cmsis.o(i.svcMutexCreate) refers to rt_mutex.o(i.rt_mut_init) for rt_mut_init
    rt_cmsis.o(i.svcMutexDelete) refers to rt_cmsis.o(i.rt_id2obj) for rt_id2obj
    rt_cmsis.o(i.svcMutexDelete) refers to rt_mutex.o(i.rt_mut_delete) for rt_mut_delete
    rt_cmsis.o(i.svcMutexRelease) refers to rt_cmsis.o(i.rt_id2obj) for rt_id2obj
    rt_cmsis.o(i.svcMutexRelease) refers to rt_mutex.o(i.rt_mut_release) for rt_mut_release
    rt_cmsis.o(i.svcMutexWait) refers to rt_cmsis.o(i.rt_id2obj) for rt_id2obj
    rt_cmsis.o(i.svcMutexWait) refers to rt_cmsis.o(i.rt_ms2tick) for rt_ms2tick
    rt_cmsis.o(i.svcMutexWait) refers to rt_mutex.o(i.rt_mut_wait) for rt_mut_wait
    rt_cmsis.o(i.svcPoolCreate) refers to rt_membox.o(i._init_box) for _init_box
    rt_cmsis.o(i.svcSemaphoreCreate) refers to rt_semaphore.o(i.rt_sem_init) for rt_sem_init
    rt_cmsis.o(i.svcSemaphoreDelete) refers to rt_cmsis.o(i.rt_id2obj) for rt_id2obj
    rt_cmsis.o(i.svcSemaphoreDelete) refers to rt_semaphore.o(i.rt_sem_delete) for rt_sem_delete
    rt_cmsis.o(i.svcSemaphoreRelease) refers to rt_cmsis.o(i.rt_id2obj) for rt_id2obj
    rt_cmsis.o(i.svcSemaphoreRelease) refers to rt_semaphore.o(i.rt_sem_send) for rt_sem_send
    rt_cmsis.o(i.svcSemaphoreWait) refers to rt_cmsis.o(i.rt_id2obj) for rt_id2obj
    rt_cmsis.o(i.svcSemaphoreWait) refers to rt_cmsis.o(i.rt_ms2tick) for rt_ms2tick
    rt_cmsis.o(i.svcSemaphoreWait) refers to rt_semaphore.o(i.rt_sem_wait) for rt_sem_wait
    rt_cmsis.o(i.svcSignalClear) refers to rt_cmsis.o(i.rt_tid2ptcb) for rt_tid2ptcb
    rt_cmsis.o(i.svcSignalClear) refers to rt_event.o(i.rt_evt_clr) for rt_evt_clr
    rt_cmsis.o(i.svcSignalSet) refers to rt_cmsis.o(i.rt_tid2ptcb) for rt_tid2ptcb
    rt_cmsis.o(i.svcSignalSet) refers to rt_event.o(i.rt_evt_set) for rt_evt_set
    rt_cmsis.o(i.svcSignalWait) refers to rt_cmsis.o(i.rt_ms2tick) for rt_ms2tick
    rt_cmsis.o(i.svcSignalWait) refers to rt_event.o(i.rt_evt_wait) for rt_evt_wait
    rt_cmsis.o(i.svcSignalWait) refers to rt_task.o(.data) for os_tsk
    rt_cmsis.o(i.svcThreadCreate) refers to rt_memory.o(i.rt_alloc_mem) for rt_alloc_mem
    rt_cmsis.o(i.svcThreadCreate) refers to rt_task.o(i.rt_tsk_create) for rt_tsk_create
    rt_cmsis.o(i.svcThreadCreate) refers to rt_memory.o(i.rt_free_mem) for rt_free_mem
    rt_cmsis.o(i.svcThreadCreate) refers to rtx_conf_cm.o(.bss) for os_stack_mem
    rt_cmsis.o(i.svcThreadCreate) refers to rt_cmsis.o(i.osThreadExit) for osThreadExit
    rt_cmsis.o(i.svcThreadGetId) refers to rt_task.o(i.rt_tsk_self) for rt_tsk_self
    rt_cmsis.o(i.svcThreadGetId) refers to rtx_conf_cm.o(.bss) for os_active_TCB
    rt_cmsis.o(i.svcThreadGetPriority) refers to rt_cmsis.o(i.rt_tid2ptcb) for rt_tid2ptcb
    rt_cmsis.o(i.svcThreadSetPriority) refers to rt_cmsis.o(i.rt_tid2ptcb) for rt_tid2ptcb
    rt_cmsis.o(i.svcThreadSetPriority) refers to rt_task.o(i.rt_tsk_prio) for rt_tsk_prio
    rt_cmsis.o(i.svcThreadTerminate) refers to rt_cmsis.o(i.rt_tid2ptcb) for rt_tid2ptcb
    rt_cmsis.o(i.svcThreadTerminate) refers to rt_task.o(i.rt_tsk_delete) for rt_tsk_delete
    rt_cmsis.o(i.svcThreadTerminate) refers to rt_memory.o(i.rt_free_mem) for rt_free_mem
    rt_cmsis.o(i.svcThreadTerminate) refers to rtx_conf_cm.o(.bss) for os_stack_mem
    rt_cmsis.o(i.svcThreadYield) refers to rt_task.o(i.rt_tsk_pass) for rt_tsk_pass
    rt_cmsis.o(i.svcTimerCall) refers to rt_cmsis.o(i.rt_id2obj) for rt_id2obj
    rt_cmsis.o(i.svcTimerCreate) refers to rtx_conf_cm.o(.data) for osThreadId_osTimerThread
    rt_cmsis.o(i.svcTimerDelete) refers to rt_cmsis.o(i.rt_id2obj) for rt_id2obj
    rt_cmsis.o(i.svcTimerDelete) refers to rt_cmsis.o(i.rt_timer_remove) for rt_timer_remove
    rt_cmsis.o(i.svcTimerStart) refers to rt_cmsis.o(i.rt_id2obj) for rt_id2obj
    rt_cmsis.o(i.svcTimerStart) refers to uldiv.o(.text) for __aeabi_uldivmod
    rt_cmsis.o(i.svcTimerStart) refers to rt_cmsis.o(i.rt_timer_remove) for rt_timer_remove
    rt_cmsis.o(i.svcTimerStart) refers to rt_cmsis.o(i.rt_timer_insert) for rt_timer_insert
    rt_cmsis.o(i.svcTimerStart) refers to rtx_conf_cm.o(.constdata) for os_clockrate
    rt_cmsis.o(i.svcTimerStop) refers to rt_cmsis.o(i.rt_id2obj) for rt_id2obj
    rt_cmsis.o(i.svcTimerStop) refers to rt_cmsis.o(i.rt_timer_remove) for rt_timer_remove
    rt_cmsis.o(i.sysMailAlloc) refers to rt_membox.o(i.rt_alloc_box) for rt_alloc_box
    rt_cmsis.o(i.sysMailAlloc) refers to rt_list.o(i.rt_put_prio) for rt_put_prio
    rt_cmsis.o(i.sysMailAlloc) refers to rt_cmsis.o(i.rt_ms2tick) for rt_ms2tick
    rt_cmsis.o(i.sysMailAlloc) refers to rt_task.o(i.rt_block) for rt_block
    rt_cmsis.o(i.sysMailAlloc) refers to rt_task.o(.data) for os_tsk
    rt_cmsis.o(i.sysMailFree) refers to rt_membox.o(i.rt_free_box) for rt_free_box
    rt_cmsis.o(i.sysMailFree) refers to rt_list.o(i.rt_psq_enq) for rt_psq_enq
    rt_cmsis.o(i.sysMailFree) refers to rt_system.o(i.rt_psh_req) for rt_psh_req
    rt_cmsis.o(i.sysMailFree) refers to rt_membox.o(i.rt_alloc_box) for rt_alloc_box
    rt_cmsis.o(i.sysMailFree) refers to rt_list.o(i.rt_get_first) for rt_get_first
    rt_cmsis.o(i.sysMailFree) refers to hal_cm.o(i.rt_ret_val) for rt_ret_val
    rt_cmsis.o(i.sysMailFree) refers to rt_list.o(i.rt_rmv_dly) for rt_rmv_dly
    rt_cmsis.o(i.sysMailFree) refers to rt_task.o(i.rt_dispatch) for rt_dispatch
    rt_cmsis.o(i.sysPoolAlloc) refers to rt_membox.o(i.rt_alloc_box) for rt_alloc_box
    rt_cmsis.o(i.sysPoolFree) refers to rt_membox.o(i.rt_free_box) for rt_free_box
    rt_cmsis.o(i.sysTimerTick) refers to rt_cmsis.o(i.isrMessagePut) for isrMessagePut
    rt_cmsis.o(i.sysTimerTick) refers to rtx_conf_cm.o(i.os_error) for os_error
    rt_cmsis.o(i.sysTimerTick) refers to rt_cmsis.o(i.rt_timer_insert) for rt_timer_insert
    rt_cmsis.o(i.sysTimerTick) refers to rt_cmsis.o(.data) for .data
    rt_cmsis.o(i.sysTimerTick) refers to rtx_conf_cm.o(.data) for osMessageQId_osTimerMessageQ
    rt_cmsis.o(i.sysUserTimerUpdate) refers to rt_cmsis.o(i.sysTimerTick) for sysTimerTick
    rt_cmsis.o(i.sysUserTimerUpdate) refers to rt_cmsis.o(.data) for .data
    rt_cmsis.o(i.sysUserTimerWakeupTime) refers to rt_cmsis.o(.data) for .data
    rt_task.o(i.rt_block) refers to rt_list.o(i.rt_put_dly) for rt_put_dly
    rt_task.o(i.rt_block) refers to rt_list.o(i.rt_get_first) for rt_get_first
    rt_task.o(i.rt_block) refers to rt_task.o(i.rt_switch_req) for rt_switch_req
    rt_task.o(i.rt_block) refers to rt_task.o(.data) for .data
    rt_task.o(i.rt_block) refers to rt_list.o(.bss) for os_rdy
    rt_task.o(i.rt_dispatch) refers to rt_list.o(i.rt_put_rdy_first) for rt_put_rdy_first
    rt_task.o(i.rt_dispatch) refers to rt_task.o(i.rt_switch_req) for rt_switch_req
    rt_task.o(i.rt_dispatch) refers to rt_list.o(i.rt_get_first) for rt_get_first
    rt_task.o(i.rt_dispatch) refers to rt_list.o(i.rt_put_prio) for rt_put_prio
    rt_task.o(i.rt_dispatch) refers to rt_task.o(.data) for .data
    rt_task.o(i.rt_dispatch) refers to rt_list.o(.bss) for os_rdy
    rt_task.o(i.rt_init_context) refers to rt_membox.o(i.rt_alloc_box) for rt_alloc_box
    rt_task.o(i.rt_init_context) refers to hal_cm.o(i.rt_init_stack) for rt_init_stack
    rt_task.o(i.rt_init_context) refers to rtx_conf_cm.o(.bss) for mp_stk
    rt_task.o(i.rt_switch_req) refers to hal_cm.o(i.dbg_task_switch) for dbg_task_switch
    rt_task.o(i.rt_switch_req) refers to rt_task.o(.data) for .data
    rt_task.o(i.rt_switch_req) refers to hal_cm.o(.data) for dbg_msg
    rt_task.o(i.rt_sys_init) refers to hal_cm.o(i.dbg_init) for dbg_init
    rt_task.o(i.rt_sys_init) refers to rt_membox.o(i._init_box) for _init_box
    rt_task.o(i.rt_sys_init) refers to rt_task.o(i.rt_init_context) for rt_init_context
    rt_task.o(i.rt_sys_init) refers to rt_robin.o(i.rt_init_robin) for rt_init_robin
    rt_task.o(i.rt_sys_init) refers to rtx_conf_cm.o(.bss) for os_active_TCB
    rt_task.o(i.rt_sys_init) refers to rtx_conf_cm.o(.constdata) for os_maxtaskrun
    rt_task.o(i.rt_sys_init) refers to rtx_conf_cm.o(.data) for m_tmr
    rt_task.o(i.rt_sys_init) refers to rt_task.o(.bss) for .bss
    rt_task.o(i.rt_sys_init) refers to rtx_conf_cm.o(i.os_idle_demon) for os_idle_demon
    rt_task.o(i.rt_sys_init) refers to rt_list.o(.bss) for os_rdy
    rt_task.o(i.rt_sys_init) refers to rt_task.o(.data) for .data
    rt_task.o(i.rt_sys_start) refers to rt_system.o(i.os_tick_init) for os_tick_init
    rt_task.o(i.rt_sys_start) refers to rt_system.o(.data) for os_tick_irqn
    rt_task.o(i.rt_tsk_create) refers to rt_membox.o(i.rt_alloc_box) for rt_alloc_box
    rt_task.o(i.rt_tsk_create) refers to rt_task.o(i.rt_init_context) for rt_init_context
    rt_task.o(i.rt_tsk_create) refers to hal_cm.o(i.dbg_task_notify) for dbg_task_notify
    rt_task.o(i.rt_tsk_create) refers to rt_task.o(i.rt_dispatch) for rt_dispatch
    rt_task.o(i.rt_tsk_create) refers to rtx_conf_cm.o(.bss) for mp_tcb
    rt_task.o(i.rt_tsk_create) refers to rtx_conf_cm.o(.constdata) for os_maxtaskrun
    rt_task.o(i.rt_tsk_create) refers to hal_cm.o(.data) for dbg_msg
    rt_task.o(i.rt_tsk_delete) refers to hal_cm4.o(.emb_text) for rt_get_PSP
    rt_task.o(i.rt_tsk_delete) refers to rt_system.o(i.rt_stk_check) for rt_stk_check
    rt_task.o(i.rt_tsk_delete) refers to rt_list.o(i.rt_get_first) for rt_get_first
    rt_task.o(i.rt_tsk_delete) refers to hal_cm.o(i.rt_ret_val) for rt_ret_val
    rt_task.o(i.rt_tsk_delete) refers to rt_list.o(i.rt_rmv_dly) for rt_rmv_dly
    rt_task.o(i.rt_tsk_delete) refers to rt_list.o(i.rt_put_prio) for rt_put_prio
    rt_task.o(i.rt_tsk_delete) refers to rt_membox.o(i.rt_free_box) for rt_free_box
    rt_task.o(i.rt_tsk_delete) refers to hal_cm.o(i.dbg_task_notify) for dbg_task_notify
    rt_task.o(i.rt_tsk_delete) refers to rt_list.o(i.rt_rmv_list) for rt_rmv_list
    rt_task.o(i.rt_tsk_delete) refers to rt_task.o(i.rt_dispatch) for rt_dispatch
    rt_task.o(i.rt_tsk_delete) refers to hal_cm.o(.data) for dbg_msg
    rt_task.o(i.rt_tsk_delete) refers to rtx_conf_cm.o(.bss) for os_active_TCB
    rt_task.o(i.rt_tsk_delete) refers to rt_task.o(.data) for .data
    rt_task.o(i.rt_tsk_delete) refers to rt_list.o(.bss) for os_rdy
    rt_task.o(i.rt_tsk_delete) refers to rtx_conf_cm.o(.constdata) for os_maxtaskrun
    rt_task.o(i.rt_tsk_pass) refers to rt_list.o(i.rt_get_same_rdy_prio) for rt_get_same_rdy_prio
    rt_task.o(i.rt_tsk_pass) refers to rt_list.o(i.rt_put_prio) for rt_put_prio
    rt_task.o(i.rt_tsk_pass) refers to rt_task.o(i.rt_switch_req) for rt_switch_req
    rt_task.o(i.rt_tsk_pass) refers to rt_task.o(.data) for .data
    rt_task.o(i.rt_tsk_pass) refers to rt_list.o(.bss) for os_rdy
    rt_task.o(i.rt_tsk_prio) refers to rt_list.o(i.rt_put_prio) for rt_put_prio
    rt_task.o(i.rt_tsk_prio) refers to rt_list.o(i.rt_resort_prio) for rt_resort_prio
    rt_task.o(i.rt_tsk_prio) refers to rt_list.o(i.rt_get_first) for rt_get_first
    rt_task.o(i.rt_tsk_prio) refers to rt_task.o(i.rt_dispatch) for rt_dispatch
    rt_task.o(i.rt_tsk_prio) refers to rt_task.o(.data) for .data
    rt_task.o(i.rt_tsk_prio) refers to rtx_conf_cm.o(.constdata) for os_maxtaskrun
    rt_task.o(i.rt_tsk_prio) refers to rtx_conf_cm.o(.bss) for os_active_TCB
    rt_task.o(i.rt_tsk_prio) refers to rt_list.o(.bss) for os_rdy
    rt_task.o(i.rt_tsk_self) refers to rt_task.o(.data) for .data
    rt_system.o(i.os_tick_init) refers to rtx_conf_cm.o(.constdata) for os_trv
    rt_system.o(i.os_tick_val) refers to rtx_conf_cm.o(.constdata) for os_trv
    rt_system.o(i.rt_pop_req) refers to rt_list.o(i.rt_put_rdy_first) for rt_put_rdy_first
    rt_system.o(i.rt_pop_req) refers to rt_semaphore.o(i.rt_sem_psh) for rt_sem_psh
    rt_system.o(i.rt_pop_req) refers to rt_list.o(i.rt_get_first) for rt_get_first
    rt_system.o(i.rt_pop_req) refers to rt_task.o(i.rt_switch_req) for rt_switch_req
    rt_system.o(i.rt_pop_req) refers to rt_event.o(i.rt_evt_psh) for rt_evt_psh
    rt_system.o(i.rt_pop_req) refers to rt_mailbox.o(i.rt_mbx_psh) for rt_mbx_psh
    rt_system.o(i.rt_pop_req) refers to rt_task.o(.data) for os_tsk
    rt_system.o(i.rt_pop_req) refers to rtx_conf_cm.o(.bss) for os_fifo
    rt_system.o(i.rt_pop_req) refers to rt_list.o(.bss) for os_rdy
    rt_system.o(i.rt_psh_req) refers to rt_system.o(.data) for .data
    rt_system.o(i.rt_resume) refers to rt_list.o(i.rt_put_rdy_first) for rt_put_rdy_first
    rt_system.o(i.rt_resume) refers to rt_list.o(i.rt_dec_dly) for rt_dec_dly
    rt_system.o(i.rt_resume) refers to rt_cmsis.o(i.sysUserTimerUpdate) for sysUserTimerUpdate
    rt_system.o(i.rt_resume) refers to rt_list.o(i.rt_get_first) for rt_get_first
    rt_system.o(i.rt_resume) refers to rt_task.o(i.rt_switch_req) for rt_switch_req
    rt_system.o(i.rt_resume) refers to rt_system.o(i.rt_tsk_unlock) for rt_tsk_unlock
    rt_system.o(i.rt_resume) refers to rt_task.o(.data) for os_tsk
    rt_system.o(i.rt_resume) refers to rt_robin.o(.data) for os_robin
    rt_system.o(i.rt_resume) refers to rt_list.o(.bss) for os_dly
    rt_system.o(i.rt_resume) refers to rt_time.o(.data) for os_time
    rt_system.o(i.rt_stk_check) refers to rtx_conf_cm.o(i.os_error) for os_error
    rt_system.o(i.rt_stk_check) refers to rt_task.o(.data) for os_tsk
    rt_system.o(i.rt_suspend) refers to rt_system.o(i.rt_tsk_lock) for rt_tsk_lock
    rt_system.o(i.rt_suspend) refers to rt_cmsis.o(i.sysUserTimerWakeupTime) for sysUserTimerWakeupTime
    rt_system.o(i.rt_suspend) refers to rt_list.o(.bss) for os_dly
    rt_system.o(i.rt_systick) refers to rt_list.o(i.rt_put_rdy_first) for rt_put_rdy_first
    rt_system.o(i.rt_systick) refers to rt_robin.o(i.rt_chk_robin) for rt_chk_robin
    rt_system.o(i.rt_systick) refers to rt_list.o(i.rt_dec_dly) for rt_dec_dly
    rt_system.o(i.rt_systick) refers to rt_cmsis.o(i.sysTimerTick) for sysTimerTick
    rt_system.o(i.rt_systick) refers to rt_list.o(i.rt_get_first) for rt_get_first
    rt_system.o(i.rt_systick) refers to rt_task.o(i.rt_switch_req) for rt_switch_req
    rt_system.o(i.rt_systick) refers to rt_task.o(.data) for os_tsk
    rt_system.o(i.rt_systick) refers to rt_time.o(.data) for os_time
    rt_system.o(i.rt_systick) refers to rt_list.o(.bss) for os_rdy
    rt_system.o(i.rt_tsk_lock) refers to rt_system.o(.data) for .data
    rt_system.o(i.rt_tsk_unlock) refers to rt_system.o(.data) for .data
    rt_event.o(i.isr_evt_set) refers to rt_list.o(i.rt_psq_enq) for rt_psq_enq
    rt_event.o(i.isr_evt_set) refers to rt_system.o(i.rt_psh_req) for rt_psh_req
    rt_event.o(i.isr_evt_set) refers to rtx_conf_cm.o(.bss) for os_active_TCB
    rt_event.o(i.rt_evt_clr) refers to rtx_conf_cm.o(.bss) for os_active_TCB
    rt_event.o(i.rt_evt_get) refers to rt_task.o(.data) for os_tsk
    rt_event.o(i.rt_evt_psh) refers to rt_list.o(i.rt_rmv_dly) for rt_rmv_dly
    rt_event.o(i.rt_evt_psh) refers to hal_cm.o(i.rt_ret_val2) for rt_ret_val2
    rt_event.o(i.rt_evt_psh) refers to rt_list.o(i.rt_put_prio) for rt_put_prio
    rt_event.o(i.rt_evt_psh) refers to rt_list.o(.bss) for os_rdy
    rt_event.o(i.rt_evt_set) refers to rt_list.o(i.rt_rmv_dly) for rt_rmv_dly
    rt_event.o(i.rt_evt_set) refers to hal_cm.o(i.rt_ret_val2) for rt_ret_val2
    rt_event.o(i.rt_evt_set) refers to rt_task.o(i.rt_dispatch) for rt_dispatch
    rt_event.o(i.rt_evt_set) refers to rtx_conf_cm.o(.bss) for os_active_TCB
    rt_event.o(i.rt_evt_wait) refers to rt_task.o(i.rt_block) for rt_block
    rt_event.o(i.rt_evt_wait) refers to rt_task.o(.data) for os_tsk
    rt_list.o(i.rt_dec_dly) refers to rt_list.o(i.rt_put_prio) for rt_put_prio
    rt_list.o(i.rt_dec_dly) refers to rt_list.o(.bss) for .bss
    rt_list.o(i.rt_dec_dly) refers to rt_time.o(.data) for os_time
    rt_list.o(i.rt_get_same_rdy_prio) refers to rt_list.o(.bss) for .bss
    rt_list.o(i.rt_get_same_rdy_prio) refers to rt_task.o(.data) for os_tsk
    rt_list.o(i.rt_psq_enq) refers to rtx_conf_cm.o(i.os_error) for os_error
    rt_list.o(i.rt_psq_enq) refers to rtx_conf_cm.o(.bss) for os_fifo
    rt_list.o(i.rt_put_dly) refers to rt_list.o(.bss) for .bss
    rt_list.o(i.rt_put_rdy_first) refers to rt_list.o(.bss) for .bss
    rt_list.o(i.rt_resort_prio) refers to rt_list.o(i.rt_rmv_list) for rt_rmv_list
    rt_list.o(i.rt_resort_prio) refers to rt_list.o(i.rt_put_prio) for rt_put_prio
    rt_list.o(i.rt_resort_prio) refers to rt_list.o(.bss) for .bss
    rt_list.o(i.rt_rmv_list) refers to rt_list.o(.bss) for .bss
    rt_mailbox.o(i.isr_mbx_receive) refers to rt_list.o(i.rt_psq_enq) for rt_psq_enq
    rt_mailbox.o(i.isr_mbx_receive) refers to rt_system.o(i.rt_psh_req) for rt_psh_req
    rt_mailbox.o(i.isr_mbx_send) refers to rt_list.o(i.rt_psq_enq) for rt_psq_enq
    rt_mailbox.o(i.isr_mbx_send) refers to rt_system.o(i.rt_psh_req) for rt_psh_req
    rt_mailbox.o(i.rt_mbx_psh) refers to rt_membox.o(i.rt_alloc_box) for rt_alloc_box
    rt_mailbox.o(i.rt_mbx_psh) refers to rt_list.o(i.rt_get_first) for rt_get_first
    rt_mailbox.o(i.rt_mbx_psh) refers to hal_cm.o(i.rt_ret_val) for rt_ret_val
    rt_mailbox.o(i.rt_mbx_psh) refers to rt_list.o(i.rt_rmv_dly) for rt_rmv_dly
    rt_mailbox.o(i.rt_mbx_psh) refers to rt_list.o(i.rt_put_prio) for rt_put_prio
    rt_mailbox.o(i.rt_mbx_psh) refers to hal_cm.o(i.rt_ret_val2) for rt_ret_val2
    rt_mailbox.o(i.rt_mbx_psh) refers to rtx_conf_cm.o(i.os_error) for os_error
    rt_mailbox.o(i.rt_mbx_psh) refers to rt_list.o(.bss) for os_rdy
    rt_mailbox.o(i.rt_mbx_send) refers to rt_list.o(i.rt_put_prio) for rt_put_prio
    rt_mailbox.o(i.rt_mbx_send) refers to rt_list.o(i.rt_get_first) for rt_get_first
    rt_mailbox.o(i.rt_mbx_send) refers to hal_cm.o(i.rt_ret_val2) for rt_ret_val2
    rt_mailbox.o(i.rt_mbx_send) refers to rt_list.o(i.rt_rmv_dly) for rt_rmv_dly
    rt_mailbox.o(i.rt_mbx_send) refers to rt_task.o(i.rt_dispatch) for rt_dispatch
    rt_mailbox.o(i.rt_mbx_send) refers to rt_task.o(i.rt_block) for rt_block
    rt_mailbox.o(i.rt_mbx_send) refers to rt_task.o(.data) for os_tsk
    rt_mailbox.o(i.rt_mbx_wait) refers to rt_list.o(i.rt_get_first) for rt_get_first
    rt_mailbox.o(i.rt_mbx_wait) refers to hal_cm.o(i.rt_ret_val) for rt_ret_val
    rt_mailbox.o(i.rt_mbx_wait) refers to rt_list.o(i.rt_rmv_dly) for rt_rmv_dly
    rt_mailbox.o(i.rt_mbx_wait) refers to rt_task.o(i.rt_dispatch) for rt_dispatch
    rt_mailbox.o(i.rt_mbx_wait) refers to rt_list.o(i.rt_put_prio) for rt_put_prio
    rt_mailbox.o(i.rt_mbx_wait) refers to rt_task.o(i.rt_block) for rt_block
    rt_mailbox.o(i.rt_mbx_wait) refers to rt_task.o(.data) for os_tsk
    rt_semaphore.o(i.isr_sem_send) refers to rt_list.o(i.rt_psq_enq) for rt_psq_enq
    rt_semaphore.o(i.isr_sem_send) refers to rt_system.o(i.rt_psh_req) for rt_psh_req
    rt_semaphore.o(i.rt_sem_delete) refers to rt_list.o(i.rt_get_first) for rt_get_first
    rt_semaphore.o(i.rt_sem_delete) refers to hal_cm.o(i.rt_ret_val) for rt_ret_val
    rt_semaphore.o(i.rt_sem_delete) refers to rt_list.o(i.rt_rmv_dly) for rt_rmv_dly
    rt_semaphore.o(i.rt_sem_delete) refers to rt_list.o(i.rt_put_prio) for rt_put_prio
    rt_semaphore.o(i.rt_sem_delete) refers to rt_task.o(i.rt_dispatch) for rt_dispatch
    rt_semaphore.o(i.rt_sem_delete) refers to rt_list.o(.bss) for os_rdy
    rt_semaphore.o(i.rt_sem_delete) refers to rt_task.o(.data) for os_tsk
    rt_semaphore.o(i.rt_sem_psh) refers to rt_list.o(i.rt_get_first) for rt_get_first
    rt_semaphore.o(i.rt_sem_psh) refers to rt_list.o(i.rt_rmv_dly) for rt_rmv_dly
    rt_semaphore.o(i.rt_sem_psh) refers to hal_cm.o(i.rt_ret_val) for rt_ret_val
    rt_semaphore.o(i.rt_sem_psh) refers to rt_list.o(i.rt_put_prio) for rt_put_prio
    rt_semaphore.o(i.rt_sem_psh) refers to rt_list.o(.bss) for os_rdy
    rt_semaphore.o(i.rt_sem_send) refers to rt_list.o(i.rt_get_first) for rt_get_first
    rt_semaphore.o(i.rt_sem_send) refers to hal_cm.o(i.rt_ret_val) for rt_ret_val
    rt_semaphore.o(i.rt_sem_send) refers to rt_list.o(i.rt_rmv_dly) for rt_rmv_dly
    rt_semaphore.o(i.rt_sem_send) refers to rt_task.o(i.rt_dispatch) for rt_dispatch
    rt_semaphore.o(i.rt_sem_wait) refers to rt_list.o(i.rt_put_prio) for rt_put_prio
    rt_semaphore.o(i.rt_sem_wait) refers to rt_task.o(i.rt_block) for rt_block
    rt_semaphore.o(i.rt_sem_wait) refers to rt_task.o(.data) for os_tsk
    rt_time.o(i.rt_dly_wait) refers to rt_task.o(i.rt_block) for rt_block
    rt_time.o(i.rt_itv_set) refers to rt_task.o(.data) for os_tsk
    rt_time.o(i.rt_itv_set) refers to rt_time.o(.data) for .data
    rt_time.o(i.rt_itv_wait) refers to rt_task.o(i.rt_block) for rt_block
    rt_time.o(i.rt_itv_wait) refers to rt_task.o(.data) for os_tsk
    rt_time.o(i.rt_itv_wait) refers to rt_time.o(.data) for .data
    rt_time.o(i.rt_time_get) refers to rt_time.o(.data) for .data
    rt_mutex.o(i.rt_mut_delete) refers to rt_list.o(i.rt_resort_prio) for rt_resort_prio
    rt_mutex.o(i.rt_mut_delete) refers to rt_list.o(i.rt_get_first) for rt_get_first
    rt_mutex.o(i.rt_mut_delete) refers to hal_cm.o(i.rt_ret_val) for rt_ret_val
    rt_mutex.o(i.rt_mut_delete) refers to rt_list.o(i.rt_rmv_dly) for rt_rmv_dly
    rt_mutex.o(i.rt_mut_delete) refers to rt_list.o(i.rt_put_prio) for rt_put_prio
    rt_mutex.o(i.rt_mut_delete) refers to rt_task.o(i.rt_dispatch) for rt_dispatch
    rt_mutex.o(i.rt_mut_delete) refers to rt_task.o(.data) for os_tsk
    rt_mutex.o(i.rt_mut_delete) refers to rt_list.o(.bss) for os_rdy
    rt_mutex.o(i.rt_mut_release) refers to rt_list.o(i.rt_get_first) for rt_get_first
    rt_mutex.o(i.rt_mut_release) refers to hal_cm.o(i.rt_ret_val) for rt_ret_val
    rt_mutex.o(i.rt_mut_release) refers to rt_list.o(i.rt_rmv_dly) for rt_rmv_dly
    rt_mutex.o(i.rt_mut_release) refers to rt_list.o(i.rt_put_prio) for rt_put_prio
    rt_mutex.o(i.rt_mut_release) refers to rt_task.o(i.rt_dispatch) for rt_dispatch
    rt_mutex.o(i.rt_mut_release) refers to rt_task.o(.data) for os_tsk
    rt_mutex.o(i.rt_mut_release) refers to rt_list.o(.bss) for os_rdy
    rt_mutex.o(i.rt_mut_wait) refers to rt_list.o(i.rt_resort_prio) for rt_resort_prio
    rt_mutex.o(i.rt_mut_wait) refers to rt_list.o(i.rt_put_prio) for rt_put_prio
    rt_mutex.o(i.rt_mut_wait) refers to rt_task.o(i.rt_block) for rt_block
    rt_mutex.o(i.rt_mut_wait) refers to rt_task.o(.data) for os_tsk
    rt_membox.o(i._calloc_box) refers to hal_cm4.o(.emb_text) for _alloc_box
    hal_cm.o(i.dbg_init) refers to hal_cm.o(.data) for .data
    hal_cm.o(i.rt_init_stack) refers to rtx_conf_cm.o(.constdata) for os_stackinfo
    hal_cm.o(i.rt_ret_val) refers to hal_cm.o(i.rt_ret_regs) for rt_ret_regs
    hal_cm.o(i.rt_ret_val2) refers to hal_cm.o(i.rt_ret_regs) for rt_ret_regs
    rt_robin.o(i.rt_chk_robin) refers to rt_list.o(i.rt_get_first) for rt_get_first
    rt_robin.o(i.rt_chk_robin) refers to rt_list.o(i.rt_put_prio) for rt_put_prio
    rt_robin.o(i.rt_chk_robin) refers to rt_robin.o(.data) for .data
    rt_robin.o(i.rt_chk_robin) refers to rt_list.o(.bss) for os_rdy
    rt_robin.o(i.rt_chk_robin) refers to rt_time.o(.data) for os_time
    rt_robin.o(i.rt_init_robin) refers to rt_robin.o(.data) for .data
    rt_robin.o(i.rt_init_robin) refers to rtx_conf_cm.o(.constdata) for os_rrobin
    hal_cm4.o(.emb_text) refers to rtx_conf_cm.o(.constdata) for os_flags
    hal_cm4.o(.emb_text) refers to rt_membox.o(i.rt_alloc_box) for rt_alloc_box
    hal_cm4.o(.emb_text) refers to rt_membox.o(i.rt_free_box) for rt_free_box
    hal_cm4.o(.emb_text) refers to rt_system.o(i.rt_stk_check) for rt_stk_check
    hal_cm4.o(.emb_text) refers to rt_task.o(.data) for os_tsk
    hal_cm4.o(.emb_text) refers to svc_table.o(SVC_TABLE) for SVC_Count
    hal_cm4.o(.emb_text) refers to rt_system.o(i.rt_pop_req) for rt_pop_req
    hal_cm4.o(.emb_text) refers to rt_system.o(i.rt_systick) for rt_systick
    hal_cm4.o(.emb_text) refers to rt_system.o(i.os_tick_irqack) for os_tick_irqack
    asin.o(i.__hardfp_asin) refers (Special) to iusefp.o(.text) for __I$use$fp
    asin.o(i.__hardfp_asin) refers to dunder.o(i.__mathlib_dbl_infnan) for __mathlib_dbl_infnan
    asin.o(i.__hardfp_asin) refers to dmul.o(.text) for __aeabi_dmul
    asin.o(i.__hardfp_asin) refers to dadd.o(.text) for __aeabi_dadd
    asin.o(i.__hardfp_asin) refers to errno.o(i.__set_errno) for __set_errno
    asin.o(i.__hardfp_asin) refers to dunder.o(i.__mathlib_dbl_invalid) for __mathlib_dbl_invalid
    asin.o(i.__hardfp_asin) refers to fpclassify.o(i.__ARM_fpclassify) for __ARM_fpclassify
    asin.o(i.__hardfp_asin) refers to dunder.o(i.__mathlib_dbl_underflow) for __mathlib_dbl_underflow
    asin.o(i.__hardfp_asin) refers to poly.o(i.__kernel_poly) for __kernel_poly
    asin.o(i.__hardfp_asin) refers to ddiv.o(.text) for __aeabi_ddiv
    asin.o(i.__hardfp_asin) refers to fabs.o(i.fabs) for fabs
    asin.o(i.__hardfp_asin) refers to sqrt.o(i.sqrt) for sqrt
    asin.o(i.__hardfp_asin) refers to asin.o(.constdata) for .constdata
    asin.o(i.__softfp_asin) refers (Special) to iusefp.o(.text) for __I$use$fp
    asin.o(i.__softfp_asin) refers to asin.o(i.__hardfp_asin) for __hardfp_asin
    asin.o(i.asin) refers (Special) to iusefp.o(.text) for __I$use$fp
    asin.o(i.asin) refers to asin.o(i.__hardfp_asin) for __hardfp_asin
    asin.o(.constdata) refers (Special) to iusefp.o(.text) for __I$use$fp
    asin_x.o(i.____hardfp_asin$lsc) refers (Special) to iusefp.o(.text) for __I$use$fp
    asin_x.o(i.____hardfp_asin$lsc) refers to dunder.o(i.__mathlib_dbl_infnan) for __mathlib_dbl_infnan
    asin_x.o(i.____hardfp_asin$lsc) refers to dmul.o(.text) for __aeabi_dmul
    asin_x.o(i.____hardfp_asin$lsc) refers to dadd.o(.text) for __aeabi_dadd
    asin_x.o(i.____hardfp_asin$lsc) refers to errno.o(i.__set_errno) for __set_errno
    asin_x.o(i.____hardfp_asin$lsc) refers to poly.o(i.__kernel_poly) for __kernel_poly
    asin_x.o(i.____hardfp_asin$lsc) refers to ddiv.o(.text) for __aeabi_ddiv
    asin_x.o(i.____hardfp_asin$lsc) refers to fabs.o(i.fabs) for fabs
    asin_x.o(i.____hardfp_asin$lsc) refers to sqrt.o(i.sqrt) for sqrt
    asin_x.o(i.____hardfp_asin$lsc) refers to asin_x.o(.constdata) for .constdata
    asin_x.o(i.____softfp_asin$lsc) refers (Special) to iusefp.o(.text) for __I$use$fp
    asin_x.o(i.____softfp_asin$lsc) refers to asin_x.o(i.____hardfp_asin$lsc) for ____hardfp_asin$lsc
    asin_x.o(i.__asin$lsc) refers (Special) to iusefp.o(.text) for __I$use$fp
    asin_x.o(i.__asin$lsc) refers to asin_x.o(i.____hardfp_asin$lsc) for ____hardfp_asin$lsc
    asin_x.o(.constdata) refers (Special) to iusefp.o(.text) for __I$use$fp
    sin.o(i.__hardfp_sin) refers (Special) to iusefp.o(.text) for __I$use$fp
    sin.o(i.__hardfp_sin) refers to errno.o(i.__set_errno) for __set_errno
    sin.o(i.__hardfp_sin) refers to dunder.o(i.__mathlib_dbl_invalid) for __mathlib_dbl_invalid
    sin.o(i.__hardfp_sin) refers to dunder.o(i.__mathlib_dbl_infnan) for __mathlib_dbl_infnan
    sin.o(i.__hardfp_sin) refers to rred.o(i.__ieee754_rem_pio2) for __ieee754_rem_pio2
    sin.o(i.__hardfp_sin) refers to cos_i.o(i.__kernel_cos) for __kernel_cos
    sin.o(i.__hardfp_sin) refers to sin_i.o(i.__kernel_sin) for __kernel_sin
    sin.o(i.__softfp_sin) refers (Special) to iusefp.o(.text) for __I$use$fp
    sin.o(i.__softfp_sin) refers to sin.o(i.__hardfp_sin) for __hardfp_sin
    sin.o(i.sin) refers (Special) to iusefp.o(.text) for __I$use$fp
    sin.o(i.sin) refers to sin.o(i.__hardfp_sin) for __hardfp_sin
    sin_x.o(i.____hardfp_sin$lsc) refers (Special) to iusefp.o(.text) for __I$use$fp
    sin_x.o(i.____hardfp_sin$lsc) refers to errno.o(i.__set_errno) for __set_errno
    sin_x.o(i.____hardfp_sin$lsc) refers to dunder.o(i.__mathlib_dbl_infnan) for __mathlib_dbl_infnan
    sin_x.o(i.____hardfp_sin$lsc) refers to rred.o(i.__ieee754_rem_pio2) for __ieee754_rem_pio2
    sin_x.o(i.____hardfp_sin$lsc) refers to cos_i.o(i.__kernel_cos) for __kernel_cos
    sin_x.o(i.____hardfp_sin$lsc) refers to sin_i.o(i.__kernel_sin) for __kernel_sin
    sin_x.o(i.____softfp_sin$lsc) refers (Special) to iusefp.o(.text) for __I$use$fp
    sin_x.o(i.____softfp_sin$lsc) refers to sin_x.o(i.____hardfp_sin$lsc) for ____hardfp_sin$lsc
    sin_x.o(i.__sin$lsc) refers (Special) to iusefp.o(.text) for __I$use$fp
    sin_x.o(i.__sin$lsc) refers to sin_x.o(i.____hardfp_sin$lsc) for ____hardfp_sin$lsc
    entry.o(.ARM.Collect$$$$00000000) refers (Special) to entry10a.o(.ARM.Collect$$$$0000000D) for __rt_final_cpp
    entry.o(.ARM.Collect$$$$00000000) refers (Special) to entry11a.o(.ARM.Collect$$$$0000000F) for __rt_final_exit
    entry.o(.ARM.Collect$$$$00000000) refers (Special) to entry7b.o(.ARM.Collect$$$$00000008) for _main_clock
    entry.o(.ARM.Collect$$$$00000000) refers (Special) to entry8b.o(.ARM.Collect$$$$0000000A) for _main_cpp_init
    entry.o(.ARM.Collect$$$$00000000) refers (Special) to rtx_conf_cm.o(.ARM.Collect$$$$000000FF) for _main_init
    entry.o(.ARM.Collect$$$$00000000) refers (Special) to entry5.o(.ARM.Collect$$$$00000004) for _main_scatterload
    entry.o(.ARM.Collect$$$$00000000) refers (Special) to entry2.o(.ARM.Collect$$$$00000001) for _main_stk
    uldiv.o(.text) refers to llushr.o(.text) for __aeabi_llsr
    uldiv.o(.text) refers to llshl.o(.text) for __aeabi_llsl
    printfa.o(i.__0fprintf) refers (Special) to iusefp.o(.text) for __I$use$fp
    printfa.o(i.__0fprintf) refers to printfa.o(i._printf_core) for _printf_core
    printfa.o(i.__0fprintf) refers to fputc.o(i.fputc) for fputc
    printfa.o(i.__0printf) refers (Special) to iusefp.o(.text) for __I$use$fp
    printfa.o(i.__0printf) refers to printfa.o(i._printf_core) for _printf_core
    printfa.o(i.__0printf) refers to fputc.o(i.fputc) for fputc
    printfa.o(i.__0printf) refers to stdout.o(.data) for __stdout
    printfa.o(i.__0snprintf) refers (Special) to iusefp.o(.text) for __I$use$fp
    printfa.o(i.__0snprintf) refers to printfa.o(i._printf_core) for _printf_core
    printfa.o(i.__0snprintf) refers to printfa.o(i._snputc) for _snputc
    printfa.o(i.__0sprintf) refers (Special) to iusefp.o(.text) for __I$use$fp
    printfa.o(i.__0sprintf) refers to printfa.o(i._printf_core) for _printf_core
    printfa.o(i.__0sprintf) refers to printfa.o(i._sputc) for _sputc
    printfa.o(i.__0vfprintf) refers (Special) to iusefp.o(.text) for __I$use$fp
    printfa.o(i.__0vfprintf) refers to printfa.o(i._printf_core) for _printf_core
    printfa.o(i.__0vfprintf) refers to fputc.o(i.fputc) for fputc
    printfa.o(i.__0vprintf) refers (Special) to iusefp.o(.text) for __I$use$fp
    printfa.o(i.__0vprintf) refers to printfa.o(i._printf_core) for _printf_core
    printfa.o(i.__0vprintf) refers to fputc.o(i.fputc) for fputc
    printfa.o(i.__0vprintf) refers to stdout.o(.data) for __stdout
    printfa.o(i.__0vsnprintf) refers (Special) to iusefp.o(.text) for __I$use$fp
    printfa.o(i.__0vsnprintf) refers to printfa.o(i._printf_core) for _printf_core
    printfa.o(i.__0vsnprintf) refers to printfa.o(i._snputc) for _snputc
    printfa.o(i.__0vsprintf) refers (Special) to iusefp.o(.text) for __I$use$fp
    printfa.o(i.__0vsprintf) refers to printfa.o(i._printf_core) for _printf_core
    printfa.o(i.__0vsprintf) refers to printfa.o(i._sputc) for _sputc
    printfa.o(i._fp_digits) refers (Special) to iusefp.o(.text) for __I$use$fp
    printfa.o(i._fp_digits) refers to dmul.o(.text) for __aeabi_dmul
    printfa.o(i._fp_digits) refers to ddiv.o(.text) for __aeabi_ddiv
    printfa.o(i._fp_digits) refers to cdrcmple.o(.text) for __aeabi_cdrcmple
    printfa.o(i._fp_digits) refers to dadd.o(.text) for __aeabi_dadd
    printfa.o(i._fp_digits) refers to dfixul.o(.text) for __aeabi_d2ulz
    printfa.o(i._fp_digits) refers to uldiv.o(.text) for __aeabi_uldivmod
    printfa.o(i._printf_core) refers (Special) to iusefp.o(.text) for __I$use$fp
    printfa.o(i._printf_core) refers to printfa.o(i._printf_pre_padding) for _printf_pre_padding
    printfa.o(i._printf_core) refers to uldiv.o(.text) for __aeabi_uldivmod
    printfa.o(i._printf_core) refers to printfa.o(i._printf_post_padding) for _printf_post_padding
    printfa.o(i._printf_core) refers to printfa.o(i._fp_digits) for _fp_digits
    printfa.o(i._printf_core) refers to uidiv.o(.text) for __aeabi_uidivmod
    printfa.o(i._printf_post_padding) refers (Special) to iusefp.o(.text) for __I$use$fp
    printfa.o(i._printf_pre_padding) refers (Special) to iusefp.o(.text) for __I$use$fp
    printfa.o(i._snputc) refers (Special) to iusefp.o(.text) for __I$use$fp
    printfa.o(i._sputc) refers (Special) to iusefp.o(.text) for __I$use$fp
    malloc.o(i.free) refers to mvars.o(.data) for __microlib_freelist
    malloc.o(i.malloc) refers to mvars.o(.data) for __microlib_freelist_initialised
    malloc.o(i.malloc) refers to mvars.o(.data) for __microlib_freelist
    malloc.o(i.malloc) refers to arm_startup_nrf52.o(HEAP) for __heap_base
    mallocr.o(i.__free$realloc) refers to mvars.o(.data) for __microlib_freelist
    mallocr.o(i.__malloc$realloc) refers to mallocr.o(i.internal_alloc) for internal_alloc
    mallocr.o(i.__malloc$realloc) refers to mvars.o(.data) for __microlib_freelist_initialised
    mallocr.o(i.__malloc$realloc) refers to arm_startup_nrf52.o(HEAP) for __heap_base
    mallocr.o(i.__malloc$realloc) refers to mvars.o(.data) for __microlib_freelist
    mallocr.o(i.internal_alloc) refers to memcpya.o(.text) for __aeabi_memcpy
    mallocr.o(i.internal_alloc) refers to mvars.o(.data) for __microlib_freelist
    mallocr.o(i.realloc) refers to mallocr.o(i.__free$realloc) for __free$realloc
    mallocr.o(i.realloc) refers to mallocr.o(i.internal_alloc) for internal_alloc
    mallocr.o(i.realloc) refers to mallocr.o(i.__malloc$realloc) for __malloc$realloc
    mallocr.o(i.realloc) refers to mvars.o(.data) for __microlib_freelist
    malloca.o(i.__aligned_malloc) refers to mvars.o(.data) for __microlib_freelist_initialised
    malloca.o(i.__aligned_malloc) refers to mvars.o(.data) for __microlib_freelist
    malloca.o(i.__aligned_malloc) refers to arm_startup_nrf52.o(HEAP) for __heap_base
    malloca.o(i.__free$memalign) refers to mvars.o(.data) for __microlib_freelist
    malloca.o(i.__malloc$memalign) refers to malloca.o(i.__aligned_malloc) for __aligned_malloc
    mallocra.o(i.__aligned_malloc$realloc) refers to mallocra.o(i.internal_alloc) for internal_alloc
    mallocra.o(i.__aligned_malloc$realloc) refers to mvars.o(.data) for __microlib_freelist_initialised
    mallocra.o(i.__aligned_malloc$realloc) refers to arm_startup_nrf52.o(HEAP) for __heap_base
    mallocra.o(i.__aligned_malloc$realloc) refers to mvars.o(.data) for __microlib_freelist
    mallocra.o(i.__free$realloc$memalign) refers to mvars.o(.data) for __microlib_freelist
    mallocra.o(i.__malloc$realloc$memalign) refers to mallocra.o(i.__aligned_malloc$realloc) for __aligned_malloc$realloc
    mallocra.o(i.__realloc$memalign) refers to mallocra.o(i.__free$realloc$memalign) for __free$realloc$memalign
    mallocra.o(i.__realloc$memalign) refers to mallocra.o(i.internal_alloc) for internal_alloc
    mallocra.o(i.__realloc$memalign) refers to mallocra.o(i.__malloc$realloc$memalign) for __malloc$realloc$memalign
    mallocra.o(i.__realloc$memalign) refers to mvars.o(.data) for __microlib_freelist
    mallocra.o(i.internal_alloc) refers to memcpya.o(.text) for __aeabi_memcpy
    mallocra.o(i.internal_alloc) refers to mvars.o(.data) for __microlib_freelist
    dadd.o(.text) refers (Special) to iusefp.o(.text) for __I$use$fp
    dadd.o(.text) refers to llshl.o(.text) for __aeabi_llsl
    dadd.o(.text) refers to llsshr.o(.text) for __aeabi_lasr
    dadd.o(.text) refers to depilogue.o(.text) for _double_epilogue
    dmul.o(.text) refers (Special) to iusefp.o(.text) for __I$use$fp
    dmul.o(.text) refers to depilogue.o(.text) for _double_epilogue
    ddiv.o(.text) refers (Special) to iusefp.o(.text) for __I$use$fp
    ddiv.o(.text) refers to depilogue.o(.text) for _double_round
    dflti.o(.text) refers (Special) to iusefp.o(.text) for __I$use$fp
    dflti.o(.text) refers to depilogue.o(.text) for _double_epilogue
    dfixi.o(.text) refers (Special) to iusefp.o(.text) for __I$use$fp
    dfixi.o(.text) refers to llushr.o(.text) for __aeabi_llsr
    f2d.o(.text) refers (Special) to iusefp.o(.text) for __I$use$fp
    d2f.o(.text) refers (Special) to iusefp.o(.text) for __I$use$fp
    d2f.o(.text) refers to fepilogue.o(.text) for _float_round
    cos_i.o(i.__kernel_cos) refers (Special) to iusefp.o(.text) for __I$use$fp
    cos_i.o(i.__kernel_cos) refers to dfixi.o(.text) for __aeabi_d2iz
    cos_i.o(i.__kernel_cos) refers to dmul.o(.text) for __aeabi_dmul
    cos_i.o(i.__kernel_cos) refers to poly.o(i.__kernel_poly) for __kernel_poly
    cos_i.o(i.__kernel_cos) refers to dadd.o(.text) for __aeabi_dsub
    cos_i.o(i.__kernel_cos) refers to cos_i.o(.constdata) for .constdata
    cos_i.o(.constdata) refers (Special) to iusefp.o(.text) for __I$use$fp
    dunder.o(i.__mathlib_dbl_divzero) refers to ddiv.o(.text) for __aeabi_ddiv
    dunder.o(i.__mathlib_dbl_infnan) refers to dadd.o(.text) for __aeabi_dadd
    dunder.o(i.__mathlib_dbl_infnan2) refers to dadd.o(.text) for __aeabi_dadd
    dunder.o(i.__mathlib_dbl_invalid) refers to ddiv.o(.text) for __aeabi_ddiv
    dunder.o(i.__mathlib_dbl_overflow) refers to dmul.o(.text) for __aeabi_dmul
    dunder.o(i.__mathlib_dbl_posinfnan) refers to dmul.o(.text) for __aeabi_dmul
    dunder.o(i.__mathlib_dbl_underflow) refers to dmul.o(.text) for __aeabi_dmul
    fabs.o(i.__hardfp_fabs) refers (Special) to iusefp.o(.text) for __I$use$fp
    fabs.o(i.__softfp_fabs) refers (Special) to iusefp.o(.text) for __I$use$fp
    fabs.o(i.fabs) refers (Special) to iusefp.o(.text) for __I$use$fp
    fpclassify.o(i.__ARM_fpclassify) refers (Special) to iusefp.o(.text) for __I$use$fp
    poly.o(i.__kernel_poly) refers (Special) to iusefp.o(.text) for __I$use$fp
    poly.o(i.__kernel_poly) refers to dmul.o(.text) for __aeabi_dmul
    poly.o(i.__kernel_poly) refers to dadd.o(.text) for __aeabi_dadd
    rred.o(i.__ieee754_rem_pio2) refers (Special) to iusefp.o(.text) for __I$use$fp
    rred.o(i.__ieee754_rem_pio2) refers to dadd.o(.text) for __aeabi_dsub
    rred.o(i.__ieee754_rem_pio2) refers to fabs.o(i.fabs) for fabs
    rred.o(i.__ieee754_rem_pio2) refers to dmul.o(.text) for __aeabi_dmul
    rred.o(i.__ieee754_rem_pio2) refers to dfixi.o(.text) for __aeabi_d2iz
    rred.o(i.__ieee754_rem_pio2) refers to dflti.o(.text) for __aeabi_i2d
    rred.o(i.__ieee754_rem_pio2) refers to dfltui.o(.text) for __aeabi_ui2d
    rred.o(i.__ieee754_rem_pio2) refers to rred.o(.constdata) for .constdata
    rred.o(i.__use_accurate_range_reduction) refers (Special) to iusefp.o(.text) for __I$use$fp
    rred.o(.constdata) refers (Special) to iusefp.o(.text) for __I$use$fp
    sin_i.o(i.__kernel_sin) refers (Special) to iusefp.o(.text) for __I$use$fp
    sin_i.o(i.__kernel_sin) refers to fpclassify.o(i.__ARM_fpclassify) for __ARM_fpclassify
    sin_i.o(i.__kernel_sin) refers to dunder.o(i.__mathlib_dbl_underflow) for __mathlib_dbl_underflow
    sin_i.o(i.__kernel_sin) refers to dmul.o(.text) for __aeabi_dmul
    sin_i.o(i.__kernel_sin) refers to poly.o(i.__kernel_poly) for __kernel_poly
    sin_i.o(i.__kernel_sin) refers to dadd.o(.text) for __aeabi_dsub
    sin_i.o(i.__kernel_sin) refers to sin_i.o(.constdata) for .constdata
    sin_i.o(.constdata) refers (Special) to iusefp.o(.text) for __I$use$fp
    sin_i_x.o(i.____kernel_sin$lsc) refers (Special) to iusefp.o(.text) for __I$use$fp
    sin_i_x.o(i.____kernel_sin$lsc) refers to dmul.o(.text) for __aeabi_dmul
    sin_i_x.o(i.____kernel_sin$lsc) refers to poly.o(i.__kernel_poly) for __kernel_poly
    sin_i_x.o(i.____kernel_sin$lsc) refers to dadd.o(.text) for __aeabi_dsub
    sin_i_x.o(i.____kernel_sin$lsc) refers to sin_i_x.o(.constdata) for .constdata
    sin_i_x.o(.constdata) refers (Special) to iusefp.o(.text) for __I$use$fp
    sqrt.o(i.__hardfp_sqrt) refers (Special) to iusefp.o(.text) for __I$use$fp
    sqrt.o(i.__hardfp_sqrt) refers to dsqrt.o(.text) for _dsqrt
    sqrt.o(i.__hardfp_sqrt) refers to errno.o(i.__set_errno) for __set_errno
    sqrt.o(i.__softfp_sqrt) refers (Special) to iusefp.o(.text) for __I$use$fp
    sqrt.o(i.__softfp_sqrt) refers to dsqrt.o(.text) for _dsqrt
    sqrt.o(i.__softfp_sqrt) refers to errno.o(i.__set_errno) for __set_errno
    sqrt.o(i.sqrt) refers (Special) to iusefp.o(.text) for __I$use$fp
    sqrt.o(i.sqrt) refers to dsqrt.o(.text) for _dsqrt
    sqrt.o(i.sqrt) refers to errno.o(i.__set_errno) for __set_errno
    sqrt_x.o(i.____hardfp_sqrt$lsc) refers (Special) to iusefp.o(.text) for __I$use$fp
    sqrt_x.o(i.____hardfp_sqrt$lsc) refers to cdcmple.o(.text) for __aeabi_cdcmple
    sqrt_x.o(i.____hardfp_sqrt$lsc) refers to errno.o(i.__set_errno) for __set_errno
    sqrt_x.o(i.____hardfp_sqrt$lsc) refers to dsqrt.o(.text) for _dsqrt
    sqrt_x.o(i.____softfp_sqrt$lsc) refers (Special) to iusefp.o(.text) for __I$use$fp
    sqrt_x.o(i.____softfp_sqrt$lsc) refers to cdcmple.o(.text) for __aeabi_cdcmple
    sqrt_x.o(i.____softfp_sqrt$lsc) refers to errno.o(i.__set_errno) for __set_errno
    sqrt_x.o(i.____softfp_sqrt$lsc) refers to dsqrt.o(.text) for _dsqrt
    sqrt_x.o(i.__sqrt$lsc) refers (Special) to iusefp.o(.text) for __I$use$fp
    sqrt_x.o(i.__sqrt$lsc) refers to cdcmple.o(.text) for __aeabi_cdcmple
    sqrt_x.o(i.__sqrt$lsc) refers to errno.o(i.__set_errno) for __set_errno
    sqrt_x.o(i.__sqrt$lsc) refers to dsqrt.o(.text) for _dsqrt
    entry2.o(.ARM.Collect$$$$00000001) refers to entry2.o(.ARM.Collect$$$$00002712) for __lit__00000000
    entry2.o(.ARM.Collect$$$$00002712) refers to arm_startup_nrf52.o(STACK) for __initial_sp
    entry2.o(__vectab_stack_and_reset_area) refers to arm_startup_nrf52.o(STACK) for __initial_sp
    entry2.o(__vectab_stack_and_reset_area) refers to entry.o(.ARM.Collect$$$$00000000) for __main
    entry5.o(.ARM.Collect$$$$00000004) refers to init.o(.text) for __scatterload
    fputc.o(i.fputc) refers (Special) to iusesemip.o(.text) for __I$use$semihosting$fputc
    fputc.o(i.fputc) refers (Special) to semi.o(.text) for __semihosting_library_function
    errno.o(i.__aeabi_errno_addr) refers to errno.o(.data) for .data
    errno.o(i.__read_errno) refers to errno.o(.data) for .data
    errno.o(i.__set_errno) refers to errno.o(.data) for .data
    depilogue.o(.text) refers to llshl.o(.text) for __aeabi_llsl
    depilogue.o(.text) refers to llushr.o(.text) for __aeabi_llsr
    dfixul.o(.text) refers to llushr.o(.text) for __aeabi_llsr
    dfixul.o(.text) refers to llshl.o(.text) for __aeabi_llsl
    init.o(.text) refers to entry5.o(.ARM.Collect$$$$00000004) for __main_after_scatterload
    dsqrt.o(.text) refers to llushr.o(.text) for __aeabi_llsr
    dsqrt.o(.text) refers to depilogue.o(.text) for _double_round
    dfltui.o(.text) refers to depilogue.o(.text) for _double_epilogue


==============================================================================

Removing Unused input sections from the image.

    Removing main.o(.rev16_text), (4 bytes).
    Removing main.o(.revsh_text), (4 bytes).
    Removing main.o(.rrx_text), (6 bytes).
    Removing print_server.o(.rev16_text), (4 bytes).
    Removing print_server.o(.revsh_text), (4 bytes).
    Removing print_server.o(.rrx_text), (6 bytes).
    Removing mpu6050.o(.rev16_text), (4 bytes).
    Removing mpu6050.o(.revsh_text), (4 bytes).
    Removing mpu6050.o(.rrx_text), (6 bytes).
    Removing mpu6050.o(i.calculate_IMU_error), (516 bytes).
    Removing mpu6050.o(i.mpu_6050_I2C_register_write), (76 bytes).
    Removing timer.o(.rev16_text), (4 bytes).
    Removing timer.o(.revsh_text), (4 bytes).
    Removing timer.o(.rrx_text), (6 bytes).
    Removing timer.o(i.TimerMillisec), (64 bytes).
    Removing curr_saadc.o(.rev16_text), (4 bytes).
    Removing curr_saadc.o(.revsh_text), (4 bytes).
    Removing curr_saadc.o(.rrx_text), (6 bytes).
    Removing spi.o(.rev16_text), (4 bytes).
    Removing spi.o(.revsh_text), (4 bytes).
    Removing spi.o(.rrx_text), (6 bytes).
    Removing boards.o(.rev16_text), (4 bytes).
    Removing boards.o(.revsh_text), (4 bytes).
    Removing boards.o(.rrx_text), (6 bytes).
    Removing boards.o(i.bsp_board_button_idx_to_pin), (12 bytes).
    Removing boards.o(i.bsp_board_button_state_get), (48 bytes).
    Removing boards.o(i.bsp_board_buttons_init), (44 bytes).
    Removing boards.o(i.bsp_board_init), (26 bytes).
    Removing boards.o(i.bsp_board_led_idx_to_pin), (12 bytes).
    Removing boards.o(i.bsp_board_led_invert), (48 bytes).
    Removing boards.o(i.bsp_board_led_off), (20 bytes).
    Removing boards.o(i.bsp_board_led_on), (20 bytes).
    Removing boards.o(i.bsp_board_led_state_get), (48 bytes).
    Removing boards.o(i.bsp_board_leds_init), (48 bytes).
    Removing boards.o(i.bsp_board_leds_off), (20 bytes).
    Removing boards.o(i.bsp_board_leds_on), (20 bytes).
    Removing boards.o(i.bsp_board_pin_to_button_idx), (36 bytes).
    Removing boards.o(i.bsp_board_pin_to_led_idx), (36 bytes).
    Removing boards.o(i.nrf_gpio_cfg), (40 bytes).
    Removing boards.o(i.nrf_gpio_pin_write), (58 bytes).
    Removing boards.o(.constdata), (8 bytes).
    Removing nrf_pwr_mgmt.o(.rev16_text), (4 bytes).
    Removing nrf_pwr_mgmt.o(.revsh_text), (4 bytes).
    Removing nrf_pwr_mgmt.o(.rrx_text), (6 bytes).
    Removing nrf_pwr_mgmt.o(i.nrf_mtx_unlock), (22 bytes).
    Removing nrf_pwr_mgmt.o(i.nrf_pwr_mgmt_feed), (2 bytes).
    Removing nrf_pwr_mgmt.o(i.nrf_pwr_mgmt_init), (64 bytes).
    Removing nrf_pwr_mgmt.o(i.nrf_pwr_mgmt_run), (8 bytes).
    Removing nrf_pwr_mgmt.o(i.nrf_pwr_mgmt_shutdown), (100 bytes).
    Removing nrf_pwr_mgmt.o(i.shutdown_process), (168 bytes).
    Removing nrf_pwr_mgmt.o(.bss), (12 bytes).
    Removing nrf_pwr_mgmt.o(.constdata), (36 bytes).
    Removing nrf_pwr_mgmt.o(.data), (9 bytes).
    Removing nrf_section_iter.o(.rev16_text), (4 bytes).
    Removing nrf_section_iter.o(.revsh_text), (4 bytes).
    Removing nrf_section_iter.o(.rrx_text), (6 bytes).
    Removing nrf_section_iter.o(i.nrf_section_iter_init), (20 bytes).
    Removing nrf_section_iter.o(i.nrf_section_iter_item_set), (46 bytes).
    Removing nrf_section_iter.o(i.nrf_section_iter_next), (46 bytes).
    Removing app_util_platform.o(.rev16_text), (4 bytes).
    Removing app_util_platform.o(.revsh_text), (4 bytes).
    Removing app_util_platform.o(.rrx_text), (6 bytes).
    Removing app_util_platform.o(i.current_int_priority_get), (60 bytes).
    Removing app_util_platform.o(i.privilege_level_get), (34 bytes).
    Removing nrfx_uart.o(.rev16_text), (4 bytes).
    Removing nrfx_uart.o(.revsh_text), (4 bytes).
    Removing nrfx_uart.o(.rrx_text), (6 bytes).
    Removing nrfx_uart.o(i.interrupts_disable), (88 bytes).
    Removing nrfx_uart.o(i.nrf_gpio_cfg_default), (24 bytes).
    Removing nrfx_uart.o(i.nrfx_uart_errorsrc_get), (22 bytes).
    Removing nrfx_uart.o(i.nrfx_uart_rx), (292 bytes).
    Removing nrfx_uart.o(i.nrfx_uart_rx_abort), (24 bytes).
    Removing nrfx_uart.o(i.nrfx_uart_rx_disable), (40 bytes).
    Removing nrfx_uart.o(i.nrfx_uart_rx_enable), (60 bytes).
    Removing nrfx_uart.o(i.nrfx_uart_rx_ready), (16 bytes).
    Removing nrfx_uart.o(i.nrfx_uart_tx_abort), (52 bytes).
    Removing nrfx_uart.o(i.nrfx_uart_uninit), (60 bytes).
    Removing nrfx_uart.o(i.pins_to_default), (120 bytes).
    Removing nrfx_uart.o(i.rx_enable), (34 bytes).
    Removing nrfx_uart.o(.constdata), (41 bytes).
    Removing nrfx_gpiote.o(.rev16_text), (4 bytes).
    Removing nrfx_gpiote.o(.revsh_text), (4 bytes).
    Removing nrfx_gpiote.o(.rrx_text), (6 bytes).
    Removing nrfx_gpiote.o(i.nrf_gpio_cfg_default), (24 bytes).
    Removing nrfx_gpiote.o(i.nrf_gpio_pin_clear), (22 bytes).
    Removing nrfx_gpiote.o(i.nrf_gpio_pin_set), (22 bytes).
    Removing nrfx_gpiote.o(i.nrf_gpiote_task_addr_get), (12 bytes).
    Removing nrfx_gpiote.o(i.nrf_gpiote_te_default), (16 bytes).
    Removing nrfx_gpiote.o(i.nrfx_gpiote_clr_task_addr_get), (24 bytes).
    Removing nrfx_gpiote.o(i.nrfx_gpiote_clr_task_trigger), (32 bytes).
    Removing nrfx_gpiote.o(i.nrfx_gpiote_in_event_addr_get), (38 bytes).
    Removing nrfx_gpiote.o(i.nrfx_gpiote_in_event_disable), (84 bytes).
    Removing nrfx_gpiote.o(i.nrfx_gpiote_in_is_set), (20 bytes).
    Removing nrfx_gpiote.o(i.nrfx_gpiote_in_uninit), (72 bytes).
    Removing nrfx_gpiote.o(i.nrfx_gpiote_is_init), (20 bytes).
    Removing nrfx_gpiote.o(i.nrfx_gpiote_out_clear), (12 bytes).
    Removing nrfx_gpiote.o(i.nrfx_gpiote_out_init), (208 bytes).
    Removing nrfx_gpiote.o(i.nrfx_gpiote_out_set), (12 bytes).
    Removing nrfx_gpiote.o(i.nrfx_gpiote_out_task_addr_get), (22 bytes).
    Removing nrfx_gpiote.o(i.nrfx_gpiote_out_task_disable), (36 bytes).
    Removing nrfx_gpiote.o(i.nrfx_gpiote_out_task_enable), (44 bytes).
    Removing nrfx_gpiote.o(i.nrfx_gpiote_out_task_force), (48 bytes).
    Removing nrfx_gpiote.o(i.nrfx_gpiote_out_task_trigger), (32 bytes).
    Removing nrfx_gpiote.o(i.nrfx_gpiote_out_toggle), (38 bytes).
    Removing nrfx_gpiote.o(i.nrfx_gpiote_out_uninit), (66 bytes).
    Removing nrfx_gpiote.o(i.nrfx_gpiote_set_task_addr_get), (24 bytes).
    Removing nrfx_gpiote.o(i.nrfx_gpiote_set_task_trigger), (32 bytes).
    Removing nrfx_gpiote.o(i.nrfx_gpiote_uninit), (68 bytes).
    Removing nrfx_gpiote.o(i.pin_configured_check), (28 bytes).
    Removing nrfx_gpiote.o(i.pin_configured_clear), (32 bytes).
    Removing nrf_drv_ppi.o(.rev16_text), (4 bytes).
    Removing nrf_drv_ppi.o(.revsh_text), (4 bytes).
    Removing nrf_drv_ppi.o(.rrx_text), (6 bytes).
    Removing nrf_drv_ppi.o(i.nrf_drv_ppi_uninit), (32 bytes).
    Removing nrf_drv_uart.o(.rev16_text), (4 bytes).
    Removing nrf_drv_uart.o(.revsh_text), (4 bytes).
    Removing nrf_drv_uart.o(.rrx_text), (6 bytes).
    Removing nrf_drv_uart.o(i.nrf_drv_uart_init), (84 bytes).
    Removing nrf_drv_uart.o(i.uart_evt_handler), (56 bytes).
    Removing nrf_drv_uart.o(.data), (9 bytes).
    Removing nrfx_atomic.o(.rev16_text), (4 bytes).
    Removing nrfx_atomic.o(.revsh_text), (4 bytes).
    Removing nrfx_atomic.o(.rrx_text), (6 bytes).
    Removing nrfx_atomic.o(.emb_text), (226 bytes).
    Removing nrfx_atomic.o(i.nrfx_atomic_flag_clear), (14 bytes).
    Removing nrfx_atomic.o(i.nrfx_atomic_flag_clear_fetch), (14 bytes).
    Removing nrfx_atomic.o(i.nrfx_atomic_flag_set), (14 bytes).
    Removing nrfx_atomic.o(i.nrfx_atomic_flag_set_fetch), (14 bytes).
    Removing nrfx_atomic.o(i.nrfx_atomic_u32_add), (22 bytes).
    Removing nrfx_atomic.o(i.nrfx_atomic_u32_and), (22 bytes).
    Removing nrfx_atomic.o(i.nrfx_atomic_u32_cmp_exch), (20 bytes).
    Removing nrfx_atomic.o(i.nrfx_atomic_u32_fetch_add), (22 bytes).
    Removing nrfx_atomic.o(i.nrfx_atomic_u32_fetch_and), (22 bytes).
    Removing nrfx_atomic.o(i.nrfx_atomic_u32_fetch_or), (22 bytes).
    Removing nrfx_atomic.o(i.nrfx_atomic_u32_fetch_store), (22 bytes).
    Removing nrfx_atomic.o(i.nrfx_atomic_u32_fetch_sub), (22 bytes).
    Removing nrfx_atomic.o(i.nrfx_atomic_u32_fetch_sub_hs), (22 bytes).
    Removing nrfx_atomic.o(i.nrfx_atomic_u32_fetch_xor), (22 bytes).
    Removing nrfx_atomic.o(i.nrfx_atomic_u32_or), (22 bytes).
    Removing nrfx_atomic.o(i.nrfx_atomic_u32_store), (22 bytes).
    Removing nrfx_atomic.o(i.nrfx_atomic_u32_sub), (22 bytes).
    Removing nrfx_atomic.o(i.nrfx_atomic_u32_sub_hs), (22 bytes).
    Removing nrfx_atomic.o(i.nrfx_atomic_u32_xor), (22 bytes).
    Removing nrfx_ppi.o(.rev16_text), (4 bytes).
    Removing nrfx_ppi.o(.revsh_text), (4 bytes).
    Removing nrfx_ppi.o(.rrx_text), (6 bytes).
    Removing nrfx_ppi.o(i.group_to_mask), (8 bytes).
    Removing nrfx_ppi.o(i.is_allocated_group), (32 bytes).
    Removing nrfx_ppi.o(i.is_app_group), (24 bytes).
    Removing nrfx_ppi.o(i.nrf_ppi_channel_disable), (16 bytes).
    Removing nrfx_ppi.o(i.nrf_ppi_group_disable), (16 bytes).
    Removing nrfx_ppi.o(i.nrfx_ppi_channel_disable), (50 bytes).
    Removing nrfx_ppi.o(i.nrfx_ppi_channel_fork_assign), (40 bytes).
    Removing nrfx_ppi.o(i.nrfx_ppi_channel_free), (64 bytes).
    Removing nrfx_ppi.o(i.nrfx_ppi_channels_include_in_group), (80 bytes).
    Removing nrfx_ppi.o(i.nrfx_ppi_channels_remove_from_group), (80 bytes).
    Removing nrfx_ppi.o(i.nrfx_ppi_free_all), (104 bytes).
    Removing nrfx_ppi.o(i.nrfx_ppi_group_alloc), (104 bytes).
    Removing nrfx_ppi.o(i.nrfx_ppi_group_disable), (28 bytes).
    Removing nrfx_ppi.o(i.nrfx_ppi_group_enable), (52 bytes).
    Removing nrfx_ppi.o(i.nrfx_ppi_group_free), (76 bytes).
    Removing nrfx_ppi.o(.constdata), (304 bytes).
    Removing nrfx_prs.o(.rev16_text), (4 bytes).
    Removing nrfx_prs.o(.revsh_text), (4 bytes).
    Removing nrfx_prs.o(.rrx_text), (6 bytes).
    Removing nrfx_saadc.o(.rev16_text), (4 bytes).
    Removing nrfx_saadc.o(.revsh_text), (4 bytes).
    Removing nrfx_saadc.o(.rrx_text), (6 bytes).
    Removing nrfx_saadc.o(i.nrf_saadc_limit_int_get), (20 bytes).
    Removing nrfx_saadc.o(i.nrfx_coredep_delay_us), (24 bytes).
    Removing nrfx_saadc.o(i.nrfx_saadc_abort), (104 bytes).
    Removing nrfx_saadc.o(i.nrfx_saadc_calibrate_offset), (52 bytes).
    Removing nrfx_saadc.o(i.nrfx_saadc_channel_uninit), (88 bytes).
    Removing nrfx_saadc.o(i.nrfx_saadc_is_busy), (20 bytes).
    Removing nrfx_saadc.o(i.nrfx_saadc_limits_set), (176 bytes).
    Removing nrfx_saadc.o(i.nrfx_saadc_sample), (48 bytes).
    Removing nrfx_saadc.o(i.nrfx_saadc_sample_convert), (252 bytes).
    Removing nrfx_saadc.o(i.nrfx_saadc_uninit), (184 bytes).
    Removing nrfx_saadc.o(.constdata), (170 bytes).
    Removing nrfx_timer.o(.rev16_text), (4 bytes).
    Removing nrfx_timer.o(.revsh_text), (4 bytes).
    Removing nrfx_timer.o(.rrx_text), (6 bytes).
    Removing nrfx_timer.o(i.nrfx_timer_capture), (40 bytes).
    Removing nrfx_timer.o(i.nrfx_timer_clear), (14 bytes).
    Removing nrfx_timer.o(i.nrfx_timer_compare_int_disable), (24 bytes).
    Removing nrfx_timer.o(i.nrfx_timer_compare_int_enable), (40 bytes).
    Removing nrfx_timer.o(i.nrfx_timer_disable), (36 bytes).
    Removing nrfx_timer.o(i.nrfx_timer_increment), (14 bytes).
    Removing nrfx_timer.o(i.nrfx_timer_is_enabled), (32 bytes).
    Removing nrfx_timer.o(i.nrfx_timer_pause), (14 bytes).
    Removing nrfx_timer.o(i.nrfx_timer_resume), (14 bytes).
    Removing nrfx_timer.o(i.nrfx_timer_uninit), (124 bytes).
    Removing nrfx_timer.o(.constdata), (16 bytes).
    Removing nrfx_uarte.o(.rev16_text), (4 bytes).
    Removing nrfx_uarte.o(.revsh_text), (4 bytes).
    Removing nrfx_uarte.o(.rrx_text), (6 bytes).
    Removing nrf_atomic.o(.rev16_text), (4 bytes).
    Removing nrf_atomic.o(.revsh_text), (4 bytes).
    Removing nrf_atomic.o(.rrx_text), (6 bytes).
    Removing nrf_atomic.o(.emb_text), (226 bytes).
    Removing nrf_atomic.o(i.nrf_atomic_flag_clear), (14 bytes).
    Removing nrf_atomic.o(i.nrf_atomic_flag_clear_fetch), (14 bytes).
    Removing nrf_atomic.o(i.nrf_atomic_flag_set), (14 bytes).
    Removing nrf_atomic.o(i.nrf_atomic_flag_set_fetch), (14 bytes).
    Removing nrf_atomic.o(i.nrf_atomic_u32_add), (22 bytes).
    Removing nrf_atomic.o(i.nrf_atomic_u32_and), (22 bytes).
    Removing nrf_atomic.o(i.nrf_atomic_u32_cmp_exch), (20 bytes).
    Removing nrf_atomic.o(i.nrf_atomic_u32_fetch_add), (22 bytes).
    Removing nrf_atomic.o(i.nrf_atomic_u32_fetch_and), (22 bytes).
    Removing nrf_atomic.o(i.nrf_atomic_u32_fetch_or), (22 bytes).
    Removing nrf_atomic.o(i.nrf_atomic_u32_fetch_store), (22 bytes).
    Removing nrf_atomic.o(i.nrf_atomic_u32_fetch_sub), (22 bytes).
    Removing nrf_atomic.o(i.nrf_atomic_u32_fetch_sub_hs), (22 bytes).
    Removing nrf_atomic.o(i.nrf_atomic_u32_fetch_xor), (22 bytes).
    Removing nrf_atomic.o(i.nrf_atomic_u32_or), (22 bytes).
    Removing nrf_atomic.o(i.nrf_atomic_u32_store), (22 bytes).
    Removing nrf_atomic.o(i.nrf_atomic_u32_sub), (22 bytes).
    Removing nrf_atomic.o(i.nrf_atomic_u32_sub_hs), (22 bytes).
    Removing nrf_atomic.o(i.nrf_atomic_u32_xor), (22 bytes).
    Removing nrfx_twi.o(.rev16_text), (4 bytes).
    Removing nrfx_twi.o(.revsh_text), (4 bytes).
    Removing nrfx_twi.o(.rrx_text), (6 bytes).
    Removing nrfx_twi.o(i.nrf_gpio_cfg_default), (24 bytes).
    Removing nrfx_twi.o(i.nrfx_twi_data_count_get), (24 bytes).
    Removing nrfx_twi.o(i.nrfx_twi_disable), (68 bytes).
    Removing nrfx_twi.o(i.nrfx_twi_is_busy), (24 bytes).
    Removing nrfx_twi.o(i.nrfx_twi_stopped_event_get), (14 bytes).
    Removing nrfx_twi.o(i.nrfx_twi_uninit), (144 bytes).
    Removing nrfx_twim.o(.rev16_text), (4 bytes).
    Removing nrfx_twim.o(.revsh_text), (4 bytes).
    Removing nrfx_twim.o(.rrx_text), (6 bytes).
    Removing nrf_drv_twi.o(.rev16_text), (4 bytes).
    Removing nrf_drv_twi.o(.revsh_text), (4 bytes).
    Removing nrf_drv_twi.o(.rrx_text), (6 bytes).
    Removing nrf_drv_twi.o(i.twim_evt_handler), (72 bytes).
    Removing nrf_drv_spis.o(.rev16_text), (4 bytes).
    Removing nrf_drv_spis.o(.revsh_text), (4 bytes).
    Removing nrf_drv_spis.o(.rrx_text), (6 bytes).
    Removing nrfx_spis.o(.rev16_text), (4 bytes).
    Removing nrfx_spis.o(.revsh_text), (4 bytes).
    Removing nrfx_spis.o(.rrx_text), (6 bytes).
    Removing nrfx_spis.o(i.nrfx_spis_uninit), (124 bytes).
    Removing nrfx_spim.o(.rev16_text), (4 bytes).
    Removing nrfx_spim.o(.revsh_text), (4 bytes).
    Removing nrfx_spim.o(.rrx_text), (6 bytes).
    Removing nrfx_spi.o(.rev16_text), (4 bytes).
    Removing nrfx_spi.o(.revsh_text), (4 bytes).
    Removing nrfx_spi.o(.rrx_text), (6 bytes).
    Removing nrfx_pwm.o(.rev16_text), (4 bytes).
    Removing nrfx_pwm.o(.revsh_text), (4 bytes).
    Removing nrfx_pwm.o(.rrx_text), (6 bytes).
    Removing nrfx_pwm.o(i.nrfx_pwm_complex_playback), (100 bytes).
    Removing nrfx_pwm.o(i.nrfx_pwm_is_stopped), (48 bytes).
    Removing nrfx_pwm.o(i.nrfx_pwm_stop), (52 bytes).
    Removing nrfx_pwm.o(i.nrfx_pwm_uninit), (104 bytes).
    Removing nrfx_pwm.o(.constdata), (99 bytes).
    Removing arm_startup_nrf52.o(HEAP), (8192 bytes).
    Removing system_nrf52.o(.rev16_text), (4 bytes).
    Removing system_nrf52.o(.revsh_text), (4 bytes).
    Removing system_nrf52.o(.rrx_text), (6 bytes).
    Removing arm_pid_init_f32.o(.text), (0 bytes).
    Removing arm_pid_init_f32.o(.ARM.exidx.text.arm_pid_init_f32), (8 bytes).
    Removing rt_cmsis.o(.rev16_text), (4 bytes).
    Removing rt_cmsis.o(.revsh_text), (4 bytes).
    Removing rt_cmsis.o(.rrx_text), (6 bytes).
    Removing rt_cmsis.o(i.isrSemaphoreRelease), (40 bytes).
    Removing rt_cmsis.o(i.osKernelRunning), (36 bytes).
    Removing rt_cmsis.o(i.osKernelSysTick), (24 bytes).
    Removing rt_cmsis.o(i.osMailCAlloc), (48 bytes).
    Removing rt_cmsis.o(i.osMessageCreate), (44 bytes).
    Removing rt_cmsis.o(i.osMutexCreate), (44 bytes).
    Removing rt_cmsis.o(i.osMutexDelete), (24 bytes).
    Removing rt_cmsis.o(i.osMutexRelease), (24 bytes).
    Removing rt_cmsis.o(i.osMutexWait), (24 bytes).
    Removing rt_cmsis.o(i.osPoolAlloc), (32 bytes).
    Removing rt_cmsis.o(i.osPoolCAlloc), (52 bytes).
    Removing rt_cmsis.o(i.osPoolCreate), (44 bytes).
    Removing rt_cmsis.o(i.osPoolFree), (32 bytes).
    Removing rt_cmsis.o(i.osSemaphoreCreate), (44 bytes).
    Removing rt_cmsis.o(i.osSemaphoreDelete), (24 bytes).
    Removing rt_cmsis.o(i.osSemaphoreRelease), (24 bytes).
    Removing rt_cmsis.o(i.osSemaphoreWait), (24 bytes).
    Removing rt_cmsis.o(i.osSignalClear), (24 bytes).
    Removing rt_cmsis.o(i.osThreadGetId), (24 bytes).
    Removing rt_cmsis.o(i.osThreadGetPriority), (24 bytes).
    Removing rt_cmsis.o(i.osThreadSetPriority), (24 bytes).
    Removing rt_cmsis.o(i.osThreadTerminate), (24 bytes).
    Removing rt_cmsis.o(i.osThreadYield), (24 bytes).
    Removing rt_cmsis.o(i.osTimerCreate), (44 bytes).
    Removing rt_cmsis.o(i.osTimerDelete), (24 bytes).
    Removing rt_cmsis.o(i.osTimerStart), (24 bytes).
    Removing rt_cmsis.o(i.osTimerStop), (24 bytes).
    Removing rt_cmsis.o(i.osWait), (4 bytes).
    Removing rt_cmsis.o(i.os_resume), (12 bytes).
    Removing rt_cmsis.o(i.os_suspend), (12 bytes).
    Removing rt_cmsis.o(i.rt_clr_box), (24 bytes).
    Removing rt_cmsis.o(i.rt_timer_remove), (60 bytes).
    Removing rt_cmsis.o(i.svcKernelRunning), (12 bytes).
    Removing rt_cmsis.o(i.svcKernelSysTick), (56 bytes).
    Removing rt_cmsis.o(i.svcMutexCreate), (28 bytes).
    Removing rt_cmsis.o(i.svcMutexDelete), (26 bytes).
    Removing rt_cmsis.o(i.svcMutexRelease), (34 bytes).
    Removing rt_cmsis.o(i.svcMutexWait), (58 bytes).
    Removing rt_cmsis.o(i.svcPoolCreate), (40 bytes).
    Removing rt_cmsis.o(i.svcSemaphoreCreate), (36 bytes).
    Removing rt_cmsis.o(i.svcSemaphoreDelete), (26 bytes).
    Removing rt_cmsis.o(i.svcSemaphoreRelease), (40 bytes).
    Removing rt_cmsis.o(i.svcSemaphoreWait), (50 bytes).
    Removing rt_cmsis.o(i.svcSignalClear), (36 bytes).
    Removing rt_cmsis.o(i.svcThreadGetPriority), (18 bytes).
    Removing rt_cmsis.o(i.svcThreadSetPriority), (46 bytes).
    Removing rt_cmsis.o(i.svcThreadYield), (10 bytes).
    Removing rt_cmsis.o(i.svcTimerCreate), (56 bytes).
    Removing rt_cmsis.o(i.svcTimerDelete), (40 bytes).
    Removing rt_cmsis.o(i.svcTimerStart), (100 bytes).
    Removing rt_cmsis.o(i.svcTimerStop), (36 bytes).
    Removing rt_cmsis.o(i.sysPoolAlloc), (10 bytes).
    Removing rt_cmsis.o(i.sysPoolFree), (20 bytes).
    Removing rt_cmsis.o(i.sysUserTimerUpdate), (48 bytes).
    Removing rt_cmsis.o(i.sysUserTimerWakeupTime), (20 bytes).
    Removing rt_task.o(i.rt_tsk_pass), (48 bytes).
    Removing rt_system.o(.emb_text), (0 bytes).
    Removing rt_system.o(i.os_tick_ovf), (16 bytes).
    Removing rt_system.o(i.os_tick_val), (20 bytes).
    Removing rt_system.o(i.rt_resume), (136 bytes).
    Removing rt_system.o(i.rt_suspend), (36 bytes).
    Removing rt_system.o(i.rt_tsk_lock), (80 bytes).
    Removing rt_system.o(i.rt_tsk_unlock), (80 bytes).
    Removing rt_event.o(i.rt_evt_clr), (28 bytes).
    Removing rt_event.o(i.rt_evt_get), (12 bytes).
    Removing rt_list.o(i.rt_get_same_rdy_prio), (36 bytes).
    Removing rt_semaphore.o(i.isr_sem_send), (16 bytes).
    Removing rt_semaphore.o(i.rt_sem_delete), (92 bytes).
    Removing rt_semaphore.o(i.rt_sem_init), (12 bytes).
    Removing rt_semaphore.o(i.rt_sem_send), (42 bytes).
    Removing rt_semaphore.o(i.rt_sem_wait), (64 bytes).
    Removing rt_time.o(i.rt_itv_set), (24 bytes).
    Removing rt_time.o(i.rt_itv_wait), (40 bytes).
    Removing rt_time.o(i.rt_time_get), (12 bytes).
    Removing rt_mutex.o(i.rt_mut_delete), (176 bytes).
    Removing rt_mutex.o(i.rt_mut_init), (16 bytes).
    Removing rt_mutex.o(i.rt_mut_release), (216 bytes).
    Removing rt_mutex.o(i.rt_mut_wait), (120 bytes).
    Removing rt_membox.o(i._calloc_box), (30 bytes).
    Removing dneg.o(.text), (6 bytes).
    Removing cdcmple.o(.text), (48 bytes).

346 unused section(s) (total 20512 bytes) removed from the image.

==============================================================================

Image Symbol Table

    Local Symbols

    Symbol Name                              Value     Ov Type        Size  Object(Section)

    RESET                                    0x00000000   Section      512  arm_startup_nrf52.o(RESET)
    ../clib/microlib/division.c              0x00000000   Number         0  uidiv.o ABSOLUTE
    ../clib/microlib/division.c              0x00000000   Number         0  uldiv.o ABSOLUTE
    ../clib/microlib/errno.c                 0x00000000   Number         0  errno.o ABSOLUTE
    ../clib/microlib/init/entry.s            0x00000000   Number         0  entry.o ABSOLUTE
    ../clib/microlib/init/entry.s            0x00000000   Number         0  entry5.o ABSOLUTE
    ../clib/microlib/init/entry.s            0x00000000   Number         0  entry2.o ABSOLUTE
    ../clib/microlib/init/entry.s            0x00000000   Number         0  entry11b.o ABSOLUTE
    ../clib/microlib/init/entry.s            0x00000000   Number         0  entry8a.o ABSOLUTE
    ../clib/microlib/init/entry.s            0x00000000   Number         0  entry11a.o ABSOLUTE
    ../clib/microlib/init/entry.s            0x00000000   Number         0  entry7b.o ABSOLUTE
    ../clib/microlib/init/entry.s            0x00000000   Number         0  entry10b.o ABSOLUTE
    ../clib/microlib/init/entry.s            0x00000000   Number         0  entry8b.o ABSOLUTE
    ../clib/microlib/init/entry.s            0x00000000   Number         0  entry10a.o ABSOLUTE
    ../clib/microlib/init/entry.s            0x00000000   Number         0  entry7a.o ABSOLUTE
    ../clib/microlib/longlong.c              0x00000000   Number         0  llshl.o ABSOLUTE
    ../clib/microlib/longlong.c              0x00000000   Number         0  llushr.o ABSOLUTE
    ../clib/microlib/longlong.c              0x00000000   Number         0  llsshr.o ABSOLUTE
    ../clib/microlib/malloc/malloc.c         0x00000000   Number         0  mallocr.o ABSOLUTE
    ../clib/microlib/malloc/malloc.c         0x00000000   Number         0  malloc.o ABSOLUTE
    ../clib/microlib/malloc/malloc.c         0x00000000   Number         0  mallocra.o ABSOLUTE
    ../clib/microlib/malloc/malloc.c         0x00000000   Number         0  malloca.o ABSOLUTE
    ../clib/microlib/malloc/mvars.c          0x00000000   Number         0  mvars.o ABSOLUTE
    ../clib/microlib/printf/printf.c         0x00000000   Number         0  printfa.o ABSOLUTE
    ../clib/microlib/stdio/fputc.c           0x00000000   Number         0  fputc.o ABSOLUTE
    ../clib/microlib/stdio/semi.s            0x00000000   Number         0  semi.o ABSOLUTE
    ../clib/microlib/stdio/streams.c         0x00000000   Number         0  stdout.o ABSOLUTE
    ../clib/microlib/string/memcpy.c         0x00000000   Number         0  memcpya.o ABSOLUTE
    ../clib/microlib/string/memcpy.c         0x00000000   Number         0  memcpyb.o ABSOLUTE
    ../clib/microlib/string/memset.c         0x00000000   Number         0  memseta.o ABSOLUTE
    ../clib/microlib/string/strlen.c         0x00000000   Number         0  strlen.o ABSOLUTE
    ../clib/microlib/stubs.s                 0x00000000   Number         0  iusefp.o ABSOLUTE
    ../clib/microlib/stubs.s                 0x00000000   Number         0  iusesemip.o ABSOLUTE
    ../fplib/microlib/d2f.c                  0x00000000   Number         0  d2f.o ABSOLUTE
    ../fplib/microlib/f2d.c                  0x00000000   Number         0  f2d.o ABSOLUTE
    ../fplib/microlib/fpadd.c                0x00000000   Number         0  dadd.o ABSOLUTE
    ../fplib/microlib/fpdiv.c                0x00000000   Number         0  ddiv.o ABSOLUTE
    ../fplib/microlib/fpepilogue.c           0x00000000   Number         0  depilogue.o ABSOLUTE
    ../fplib/microlib/fpepilogue.c           0x00000000   Number         0  fepilogue.o ABSOLUTE
    ../fplib/microlib/fpfix.c                0x00000000   Number         0  dfixi.o ABSOLUTE
    ../fplib/microlib/fpfix.c                0x00000000   Number         0  dfixul.o ABSOLUTE
    ../fplib/microlib/fpflt.c                0x00000000   Number         0  dfltui.o ABSOLUTE
    ../fplib/microlib/fpflt.c                0x00000000   Number         0  dflti.o ABSOLUTE
    ../fplib/microlib/fpmul.c                0x00000000   Number         0  dmul.o ABSOLUTE
    ../fplib/microlib/fpneg.c                0x00000000   Number         0  dneg.o ABSOLUTE
    ../fplib/microlib/fpsqrt.c               0x00000000   Number         0  dsqrt.o ABSOLUTE
    ../mathlib/asin.c                        0x00000000   Number         0  asin.o ABSOLUTE
    ../mathlib/asin.c                        0x00000000   Number         0  asin_x.o ABSOLUTE
    ../mathlib/cos_i.c                       0x00000000   Number         0  cos_i.o ABSOLUTE
    ../mathlib/dunder.c                      0x00000000   Number         0  dunder.o ABSOLUTE
    ../mathlib/fabs.c                        0x00000000   Number         0  fabs.o ABSOLUTE
    ../mathlib/fpclassify.c                  0x00000000   Number         0  fpclassify.o ABSOLUTE
    ../mathlib/poly.c                        0x00000000   Number         0  poly.o ABSOLUTE
    ../mathlib/rred.c                        0x00000000   Number         0  rred.o ABSOLUTE
    ../mathlib/sin.c                         0x00000000   Number         0  sin_x.o ABSOLUTE
    ../mathlib/sin.c                         0x00000000   Number         0  sin.o ABSOLUTE
    ../mathlib/sin_i.c                       0x00000000   Number         0  sin_i_x.o ABSOLUTE
    ../mathlib/sin_i.c                       0x00000000   Number         0  sin_i.o ABSOLUTE
    ../mathlib/sqrt.c                        0x00000000   Number         0  sqrt.o ABSOLUTE
    ../mathlib/sqrt.c                        0x00000000   Number         0  sqrt_x.o ABSOLUTE
    ..\..\..\components\boards\boards.c      0x00000000   Number         0  boards.o ABSOLUTE
    ..\..\..\components\libraries\atomic\nrf_atomic.c 0x00000000   Number         0  nrf_atomic.o ABSOLUTE
    ..\..\..\components\libraries\experimental_section_vars\nrf_section_iter.c 0x00000000   Number         0  nrf_section_iter.o ABSOLUTE
    ..\..\..\components\libraries\pwr_mgmt\nrf_pwr_mgmt.c 0x00000000   Number         0  nrf_pwr_mgmt.o ABSOLUTE
    ..\..\..\components\libraries\util\app_util_platform.c 0x00000000   Number         0  app_util_platform.o ABSOLUTE
    ..\..\..\integration\nrfx\legacy\nrf_drv_ppi.c 0x00000000   Number         0  nrf_drv_ppi.o ABSOLUTE
    ..\..\..\integration\nrfx\legacy\nrf_drv_spis.c 0x00000000   Number         0  nrf_drv_spis.o ABSOLUTE
    ..\..\..\integration\nrfx\legacy\nrf_drv_twi.c 0x00000000   Number         0  nrf_drv_twi.o ABSOLUTE
    ..\..\..\integration\nrfx\legacy\nrf_drv_uart.c 0x00000000   Number         0  nrf_drv_uart.o ABSOLUTE
    ..\..\..\modules\nrfx\drivers\src\nrfx_gpiote.c 0x00000000   Number         0  nrfx_gpiote.o ABSOLUTE
    ..\..\..\modules\nrfx\drivers\src\nrfx_ppi.c 0x00000000   Number         0  nrfx_ppi.o ABSOLUTE
    ..\..\..\modules\nrfx\drivers\src\nrfx_pwm.c 0x00000000   Number         0  nrfx_pwm.o ABSOLUTE
    ..\..\..\modules\nrfx\drivers\src\nrfx_saadc.c 0x00000000   Number         0  nrfx_saadc.o ABSOLUTE
    ..\..\..\modules\nrfx\drivers\src\nrfx_spi.c 0x00000000   Number         0  nrfx_spi.o ABSOLUTE
    ..\..\..\modules\nrfx\drivers\src\nrfx_spim.c 0x00000000   Number         0  nrfx_spim.o ABSOLUTE
    ..\..\..\modules\nrfx\drivers\src\nrfx_spis.c 0x00000000   Number         0  nrfx_spis.o ABSOLUTE
    ..\..\..\modules\nrfx\drivers\src\nrfx_timer.c 0x00000000   Number         0  nrfx_timer.o ABSOLUTE
    ..\..\..\modules\nrfx\drivers\src\nrfx_twi.c 0x00000000   Number         0  nrfx_twi.o ABSOLUTE
    ..\..\..\modules\nrfx\drivers\src\nrfx_twim.c 0x00000000   Number         0  nrfx_twim.o ABSOLUTE
    ..\..\..\modules\nrfx\drivers\src\nrfx_uart.c 0x00000000   Number         0  nrfx_uart.o ABSOLUTE
    ..\..\..\modules\nrfx\drivers\src\nrfx_uarte.c 0x00000000   Number         0  nrfx_uarte.o ABSOLUTE
    ..\..\..\modules\nrfx\drivers\src\prs\nrfx_prs.c 0x00000000   Number         0  nrfx_prs.o ABSOLUTE
    ..\..\..\modules\nrfx\soc\nrfx_atomic.c  0x00000000   Number         0  nrfx_atomic.o ABSOLUTE
    ..\HAL_CM.c                              0x00000000   Number         0  hal_cm.o ABSOLUTE
    ..\Slave_nRF\SPI.c                       0x00000000   Number         0  spi.o ABSOLUTE
    ..\\..\\..\\components\\boards\\boards.c 0x00000000   Number         0  boards.o ABSOLUTE
    ..\\..\\..\\components\\libraries\\atomic\\nrf_atomic.c 0x00000000   Number         0  nrf_atomic.o ABSOLUTE
    ..\\..\\..\\components\\libraries\\experimental_section_vars\\nrf_section_iter.c 0x00000000   Number         0  nrf_section_iter.o ABSOLUTE
    ..\\..\\..\\components\\libraries\\pwr_mgmt\\nrf_pwr_mgmt.c 0x00000000   Number         0  nrf_pwr_mgmt.o ABSOLUTE
    ..\\..\\..\\components\\libraries\\util\\app_util_platform.c 0x00000000   Number         0  app_util_platform.o ABSOLUTE
    ..\\..\\..\\integration\\nrfx\\legacy\\nrf_drv_ppi.c 0x00000000   Number         0  nrf_drv_ppi.o ABSOLUTE
    ..\\..\\..\\integration\\nrfx\\legacy\\nrf_drv_spis.c 0x00000000   Number         0  nrf_drv_spis.o ABSOLUTE
    ..\\..\\..\\integration\\nrfx\\legacy\\nrf_drv_twi.c 0x00000000   Number         0  nrf_drv_twi.o ABSOLUTE
    ..\\..\\..\\integration\\nrfx\\legacy\\nrf_drv_uart.c 0x00000000   Number         0  nrf_drv_uart.o ABSOLUTE
    ..\\..\\..\\modules\\nrfx\\drivers\\src\\nrfx_gpiote.c 0x00000000   Number         0  nrfx_gpiote.o ABSOLUTE
    ..\\..\\..\\modules\\nrfx\\drivers\\src\\nrfx_ppi.c 0x00000000   Number         0  nrfx_ppi.o ABSOLUTE
    ..\\..\\..\\modules\\nrfx\\drivers\\src\\nrfx_pwm.c 0x00000000   Number         0  nrfx_pwm.o ABSOLUTE
    ..\\..\\..\\modules\\nrfx\\drivers\\src\\nrfx_saadc.c 0x00000000   Number         0  nrfx_saadc.o ABSOLUTE
    ..\\..\\..\\modules\\nrfx\\drivers\\src\\nrfx_spi.c 0x00000000   Number         0  nrfx_spi.o ABSOLUTE
    ..\\..\\..\\modules\\nrfx\\drivers\\src\\nrfx_spim.c 0x00000000   Number         0  nrfx_spim.o ABSOLUTE
    ..\\..\\..\\modules\\nrfx\\drivers\\src\\nrfx_spis.c 0x00000000   Number         0  nrfx_spis.o ABSOLUTE
    ..\\..\\..\\modules\\nrfx\\drivers\\src\\nrfx_timer.c 0x00000000   Number         0  nrfx_timer.o ABSOLUTE
    ..\\..\\..\\modules\\nrfx\\drivers\\src\\nrfx_twi.c 0x00000000   Number         0  nrfx_twi.o ABSOLUTE
    ..\\..\\..\\modules\\nrfx\\drivers\\src\\nrfx_twim.c 0x00000000   Number         0  nrfx_twim.o ABSOLUTE
    ..\\..\\..\\modules\\nrfx\\drivers\\src\\nrfx_uart.c 0x00000000   Number         0  nrfx_uart.o ABSOLUTE
    ..\\..\\..\\modules\\nrfx\\drivers\\src\\nrfx_uarte.c 0x00000000   Number         0  nrfx_uarte.o ABSOLUTE
    ..\\..\\..\\modules\\nrfx\\drivers\\src\\prs\\nrfx_prs.c 0x00000000   Number         0  nrfx_prs.o ABSOLUTE
    ..\\..\\..\\modules\\nrfx\\soc\\nrfx_atomic.c 0x00000000   Number         0  nrfx_atomic.o ABSOLUTE
    ..\\Slave_nRF\\SPI.c                     0x00000000   Number         0  spi.o ABSOLUTE
    ..\\rt_CMSIS.c                           0x00000000   Number         0  rt_cmsis.o ABSOLUTE
    ..\\rt_System.c                          0x00000000   Number         0  rt_system.o ABSOLUTE
    ..\rt_CMSIS.c                            0x00000000   Number         0  rt_cmsis.o ABSOLUTE
    ..\rt_Event.c                            0x00000000   Number         0  rt_event.o ABSOLUTE
    ..\rt_List.c                             0x00000000   Number         0  rt_list.o ABSOLUTE
    ..\rt_Mailbox.c                          0x00000000   Number         0  rt_mailbox.o ABSOLUTE
    ..\rt_MemBox.c                           0x00000000   Number         0  rt_membox.o ABSOLUTE
    ..\rt_Memory.c                           0x00000000   Number         0  rt_memory.o ABSOLUTE
    ..\rt_Mutex.c                            0x00000000   Number         0  rt_mutex.o ABSOLUTE
    ..\rt_Robin.c                            0x00000000   Number         0  rt_robin.o ABSOLUTE
    ..\rt_Semaphore.c                        0x00000000   Number         0  rt_semaphore.o ABSOLUTE
    ..\rt_System.c                           0x00000000   Number         0  rt_system.o ABSOLUTE
    ..\rt_Task.c                             0x00000000   Number         0  rt_task.o ABSOLUTE
    ..\rt_Time.c                             0x00000000   Number         0  rt_time.o ABSOLUTE
    Curr_SAADC.c                             0x00000000   Number         0  curr_saadc.o ABSOLUTE
    Curr_SAADC.c                             0x00000000   Number         0  curr_saadc.o ABSOLUTE
    HAL_CM4.c                                0x00000000   Number         0  hal_cm4.o ABSOLUTE
    HAL_CM4.c                                0x00000000   Number         0  hal_cm4.o ABSOLUTE
    MPU6050.c                                0x00000000   Number         0  mpu6050.o ABSOLUTE
    MPU6050.c                                0x00000000   Number         0  mpu6050.o ABSOLUTE
    RTE\CMSIS\RTX_Conf_CM.c                  0x00000000   Number         0  rtx_conf_cm.o ABSOLUTE
    RTE\Device\nRF52832_xxAA\arm_startup_nrf52.s 0x00000000   Number         0  arm_startup_nrf52.o ABSOLUTE
    RTE\Device\nRF52832_xxAA\system_nrf52.c  0x00000000   Number         0  system_nrf52.o ABSOLUTE
    RTE\\Device\\nRF52832_xxAA\\system_nrf52.c 0x00000000   Number         0  system_nrf52.o ABSOLUTE
    SVC_Table.s                              0x00000000   Number         0  svc_table.o ABSOLUTE
    arm_pid_init_f32.c                       0x00000000   Number         0  arm_pid_init_f32.o ABSOLUTE
    cdcmple.s                                0x00000000   Number         0  cdcmple.o ABSOLUTE
    cdrcmple.s                               0x00000000   Number         0  cdrcmple.o ABSOLUTE
    dc.s                                     0x00000000   Number         0  dc.o ABSOLUTE
    handlers.s                               0x00000000   Number         0  handlers.o ABSOLUTE
    init.s                                   0x00000000   Number         0  init.o ABSOLUTE
    main.c                                   0x00000000   Number         0  main.o ABSOLUTE
    main.c                                   0x00000000   Number         0  main.o ABSOLUTE
    print_server.c                           0x00000000   Number         0  print_server.o ABSOLUTE
    print_server.c                           0x00000000   Number         0  print_server.o ABSOLUTE
    timer.c                                  0x00000000   Number         0  timer.o ABSOLUTE
    timer.c                                  0x00000000   Number         0  timer.o ABSOLUTE
    .ARM.Collect$$$$00000000                 0x00000200   Section        0  entry.o(.ARM.Collect$$$$00000000)
    .ARM.Collect$$$$00000001                 0x00000200   Section        4  entry2.o(.ARM.Collect$$$$00000001)
    .ARM.Collect$$$$00000004                 0x00000204   Section        4  entry5.o(.ARM.Collect$$$$00000004)
    .ARM.Collect$$$$00000008                 0x00000208   Section        0  entry7b.o(.ARM.Collect$$$$00000008)
    .ARM.Collect$$$$0000000A                 0x00000208   Section        0  entry8b.o(.ARM.Collect$$$$0000000A)
    .ARM.Collect$$$$0000000D                 0x00000208   Section        0  entry10a.o(.ARM.Collect$$$$0000000D)
    .ARM.Collect$$$$0000000F                 0x00000208   Section        0  entry11a.o(.ARM.Collect$$$$0000000F)
    .ARM.Collect$$$$000000FF                 0x00000208   Section        0  rtx_conf_cm.o(.ARM.Collect$$$$000000FF)
    .ARM.Collect$$$$00002712                 0x00000220   Section        4  entry2.o(.ARM.Collect$$$$00002712)
    __lit__00000000                          0x00000220   Data           4  entry2.o(.ARM.Collect$$$$00002712)
    .emb_text                                0x00000224   Section      408  hal_cm4.o(.emb_text)
    $v0                                      0x00000224   Number         0  hal_cm4.o(.emb_text)
    .text                                    0x000003bc   Section       36  arm_startup_nrf52.o(.text)
    $v0                                      0x000003bc   Number         0  arm_startup_nrf52.o(.text)
    .text                                    0x000003e0   Section        0  uldiv.o(.text)
    .text                                    0x00000442   Section        0  llushr.o(.text)
    .text                                    0x00000462   Section        0  memcpya.o(.text)
    .text                                    0x00000486   Section        0  memseta.o(.text)
    .text                                    0x000004aa   Section        0  strlen.o(.text)
    .text                                    0x000004b8   Section        0  dadd.o(.text)
    .text                                    0x00000606   Section        0  dmul.o(.text)
    .text                                    0x000006ea   Section        0  ddiv.o(.text)
    .text                                    0x000007c8   Section        0  dflti.o(.text)
    .text                                    0x000007ea   Section        0  dfixi.o(.text)
    .text                                    0x00000828   Section        0  f2d.o(.text)
    .text                                    0x0000084e   Section        0  d2f.o(.text)
    .text                                    0x00000886   Section        0  uidiv.o(.text)
    .text                                    0x000008b2   Section        0  llshl.o(.text)
    .text                                    0x000008d0   Section        0  llsshr.o(.text)
    .text                                    0x000008f4   Section        0  iusefp.o(.text)
    .text                                    0x000008f4   Section        0  fepilogue.o(.text)
    .text                                    0x00000962   Section        0  depilogue.o(.text)
    .text                                    0x00000a1c   Section        0  dfixul.o(.text)
    .text                                    0x00000a4c   Section       48  cdrcmple.o(.text)
    .text                                    0x00000a7c   Section       36  init.o(.text)
    .text                                    0x00000aa0   Section        0  dsqrt.o(.text)
    .text                                    0x00000b42   Section        0  dfltui.o(.text)
    [Anonymous Symbol]                       0x00000b5c   Section        0  arm_pid_init_f32.o(.text.arm_pid_init_f32)
    SVC_TABLE                                0x00000b98   Section        4  svc_table.o(SVC_TABLE)
    i.GPIOTE_IRQHandler                      0x00000b9c   Section        0  nrfx_gpiote.o(i.GPIOTE_IRQHandler)
    i.Mpu_6050_thread                        0x00000db8   Section        0  mpu6050.o(i.Mpu_6050_thread)
    i.PID_control                            0x00001154   Section        0  mpu6050.o(i.PID_control)
    i.PWM                                    0x00001394   Section        0  mpu6050.o(i.PWM)
    i.PWM0_IRQHandler                        0x000014f8   Section        0  nrfx_pwm.o(i.PWM0_IRQHandler)
    i.PWM_init                               0x0000150c   Section        0  mpu6050.o(i.PWM_init)
    i.PrintServer                            0x0000153c   Section        0  print_server.o(i.PrintServer)
    i.PrintServerInit                        0x0000157c   Section        0  print_server.o(i.PrintServerInit)
    i.PrintServerPrintf                      0x000015dc   Section        0  print_server.o(i.PrintServerPrintf)
    i.SAADC_INIT                             0x00001618   Section        0  curr_saadc.o(i.SAADC_INIT)
    i.SAADC_IRQHandler                       0x00001628   Section        0  nrfx_saadc.o(i.SAADC_IRQHandler)
    i.SPIM0_SPIS0_TWIM0_TWIS0_SPI0_TWI0_IRQHandler 0x000017f4   Section        0  nrfx_spis.o(i.SPIM0_SPIS0_TWIM0_TWIS0_SPI0_TWI0_IRQHandler)
    i.SPIM1_SPIS1_TWIM1_TWIS1_SPI1_TWI1_IRQHandler 0x00001808   Section        0  nrfx_twi.o(i.SPIM1_SPIS1_TWIM1_TWIS1_SPI1_TWI1_IRQHandler)
    i.SPIM2_SPIS2_SPI2_IRQHandler            0x0000181c   Section        0  nrfx_spis.o(i.SPIM2_SPIS2_SPI2_IRQHandler)
    i.Saadc_Callback                         0x00001830   Section        0  curr_saadc.o(i.Saadc_Callback)
    i.SpiSlave                               0x00001900   Section        0  spi.o(i.SpiSlave)
    i.SpisEventHandler                       0x00001970   Section        0  spi.o(i.SpisEventHandler)
    i.SpisInit                               0x000019e4   Section        0  spi.o(i.SpisInit)
    i.SystemCoreClockUpdate                  0x00001ab0   Section        0  system_nrf52.o(i.SystemCoreClockUpdate)
    i.SystemInit                             0x00001ac0   Section        0  system_nrf52.o(i.SystemInit)
    i.TIMER0_IRQHandler                      0x00001d58   Section        0  nrfx_timer.o(i.TIMER0_IRQHandler)
    i.TIMER1_IRQHandler                      0x00001d70   Section        0  timer.o(i.TIMER1_IRQHandler)
    i.TimerInit                              0x00001d90   Section        0  timer.o(i.TimerInit)
    i.TimerIntervalMicrosec                  0x00001e20   Section        0  timer.o(i.TimerIntervalMicrosec)
    i.TimerSecondsMicrosec                   0x00001ebc   Section        0  timer.o(i.TimerSecondsMicrosec)
    i.UARTE0_UART0_IRQHandler                0x00001eec   Section        0  nrfx_uart.o(i.UARTE0_UART0_IRQHandler)
    i.__0vsnprintf                           0x00001f00   Section        0  printfa.o(i.__0vsnprintf)
    i.__ARM_fpclassify                       0x00001f2c   Section        0  fpclassify.o(i.__ARM_fpclassify)
    i.__hardfp_asin                          0x00001f60   Section        0  asin.o(i.__hardfp_asin)
    i.__hardfp_sin                           0x000022c0   Section        0  sin.o(i.__hardfp_sin)
    i.__ieee754_rem_pio2                     0x00002388   Section        0  rred.o(i.__ieee754_rem_pio2)
    i.__kernel_cos                           0x000027c0   Section        0  cos_i.o(i.__kernel_cos)
    i.__kernel_poly                          0x00002930   Section        0  poly.o(i.__kernel_poly)
    i.__kernel_sin                           0x00002a28   Section        0  sin_i.o(i.__kernel_sin)
    i.__mathlib_dbl_infnan                   0x00002b58   Section        0  dunder.o(i.__mathlib_dbl_infnan)
    i.__mathlib_dbl_invalid                  0x00002b70   Section        0  dunder.o(i.__mathlib_dbl_invalid)
    i.__mathlib_dbl_underflow                0x00002b90   Section        0  dunder.o(i.__mathlib_dbl_underflow)
    i.__scatterload_copy                     0x00002bb0   Section       14  handlers.o(i.__scatterload_copy)
    i.__scatterload_null                     0x00002bbe   Section        2  handlers.o(i.__scatterload_null)
    i.__scatterload_zeroinit                 0x00002bc0   Section       14  handlers.o(i.__scatterload_zeroinit)
    i.__set_errno                            0x00002bd0   Section        0  errno.o(i.__set_errno)
    i._fp_digits                             0x00002bdc   Section        0  printfa.o(i._fp_digits)
    _fp_digits                               0x00002bdd   Thumb Code   366  printfa.o(i._fp_digits)
    i._init_box                              0x00002d60   Section        0  rt_membox.o(i._init_box)
    i._printf_core                           0x00002da8   Section        0  printfa.o(i._printf_core)
    _printf_core                             0x00002da9   Thumb Code  1744  printfa.o(i._printf_core)
    i._printf_post_padding                   0x00003484   Section        0  printfa.o(i._printf_post_padding)
    _printf_post_padding                     0x00003485   Thumb Code    36  printfa.o(i._printf_post_padding)
    i._printf_pre_padding                    0x000034a8   Section        0  printfa.o(i._printf_pre_padding)
    _printf_pre_padding                      0x000034a9   Thumb Code    46  printfa.o(i._printf_pre_padding)
    i._snputc                                0x000034d6   Section        0  printfa.o(i._snputc)
    _snputc                                  0x000034d7   Thumb Code    22  printfa.o(i._snputc)
    i.app_util_critical_region_enter         0x000034ec   Section        0  app_util_platform.o(i.app_util_critical_region_enter)
    i.app_util_critical_region_exit          0x000034f6   Section        0  app_util_platform.o(i.app_util_critical_region_exit)
    i.app_util_disable_irq                   0x00003500   Section        0  app_util_platform.o(i.app_util_disable_irq)
    i.app_util_enable_irq                    0x00003514   Section        0  app_util_platform.o(i.app_util_enable_irq)
    i.apply_config                           0x0000352c   Section        0  nrfx_uart.o(i.apply_config)
    apply_config                             0x0000352d   Thumb Code   124  nrfx_uart.o(i.apply_config)
    i.channel_free                           0x000035a8   Section        0  nrfx_gpiote.o(i.channel_free)
    channel_free                             0x000035a9   Thumb Code    26  nrfx_gpiote.o(i.channel_free)
    i.channel_handler_get                    0x000035c8   Section        0  nrfx_gpiote.o(i.channel_handler_get)
    channel_handler_get                      0x000035c9   Thumb Code    10  nrfx_gpiote.o(i.channel_handler_get)
    i.channel_port_alloc                     0x000035d8   Section        0  nrfx_gpiote.o(i.channel_port_alloc)
    channel_port_alloc                       0x000035d9   Thumb Code   122  nrfx_gpiote.o(i.channel_port_alloc)
    i.channel_port_get                       0x00003658   Section        0  nrfx_gpiote.o(i.channel_port_get)
    channel_port_get                         0x00003659   Thumb Code     8  nrfx_gpiote.o(i.channel_port_get)
    i.configure_pins                         0x00003664   Section        0  nrfx_pwm.o(i.configure_pins)
    configure_pins                           0x00003665   Thumb Code   194  nrfx_pwm.o(i.configure_pins)
    i.csn_event_handler                      0x00003726   Section        0  nrfx_spis.o(i.csn_event_handler)
    csn_event_handler                        0x00003727   Thumb Code     2  nrfx_spis.o(i.csn_event_handler)
    i.dbg_init                               0x00003728   Section        0  hal_cm.o(i.dbg_init)
    i.dbg_task_notify                        0x00003758   Section        0  hal_cm.o(i.dbg_task_notify)
    i.dbg_task_switch                        0x00003778   Section        0  hal_cm.o(i.dbg_task_switch)
    i.errata_108                             0x00003788   Section        0  system_nrf52.o(i.errata_108)
    errata_108                               0x00003789   Thumb Code    78  system_nrf52.o(i.errata_108)
    i.errata_12                              0x000037dc   Section        0  system_nrf52.o(i.errata_12)
    errata_12                                0x000037dd   Thumb Code    78  system_nrf52.o(i.errata_12)
    i.errata_136                             0x00003830   Section        0  system_nrf52.o(i.errata_136)
    errata_136                               0x00003831   Thumb Code    78  system_nrf52.o(i.errata_136)
    i.errata_16                              0x00003884   Section        0  system_nrf52.o(i.errata_16)
    errata_16                                0x00003885   Thumb Code    42  system_nrf52.o(i.errata_16)
    i.errata_182                             0x000038b4   Section        0  system_nrf52.o(i.errata_182)
    errata_182                               0x000038b5   Thumb Code    26  system_nrf52.o(i.errata_182)
    i.errata_31                              0x000038d4   Section        0  system_nrf52.o(i.errata_31)
    errata_31                                0x000038d5   Thumb Code    78  system_nrf52.o(i.errata_31)
    i.errata_32                              0x00003928   Section        0  system_nrf52.o(i.errata_32)
    errata_32                                0x00003929   Thumb Code    42  system_nrf52.o(i.errata_32)
    i.errata_36                              0x00003958   Section        0  system_nrf52.o(i.errata_36)
    errata_36                                0x00003959   Thumb Code    78  system_nrf52.o(i.errata_36)
    i.errata_37                              0x000039ac   Section        0  system_nrf52.o(i.errata_37)
    errata_37                                0x000039ad   Thumb Code    42  system_nrf52.o(i.errata_37)
    i.errata_57                              0x000039dc   Section        0  system_nrf52.o(i.errata_57)
    errata_57                                0x000039dd   Thumb Code    42  system_nrf52.o(i.errata_57)
    i.errata_66                              0x00003a0c   Section        0  system_nrf52.o(i.errata_66)
    errata_66                                0x00003a0d   Thumb Code    42  system_nrf52.o(i.errata_66)
    i.fabs                                   0x00003a3c   Section        0  fabs.o(i.fabs)
    i.interrupts_enable                      0x00003a54   Section        0  nrfx_uart.o(i.interrupts_enable)
    interrupts_enable                        0x00003a55   Thumb Code   128  nrfx_uart.o(i.interrupts_enable)
    i.irq_handler                            0x00003ae0   Section        0  nrfx_timer.o(i.irq_handler)
    irq_handler                              0x00003ae1   Thumb Code    92  nrfx_timer.o(i.irq_handler)
    i.irq_handler                            0x00003b3c   Section        0  nrfx_pwm.o(i.irq_handler)
    irq_handler                              0x00003b3d   Thumb Code   164  nrfx_pwm.o(i.irq_handler)
    i.is_allocated_channel                   0x00003be0   Section        0  nrfx_ppi.o(i.is_allocated_channel)
    is_allocated_channel                     0x00003be1   Thumb Code    26  nrfx_ppi.o(i.is_allocated_channel)
    i.is_app_channel                         0x00003c00   Section        0  nrfx_ppi.o(i.is_app_channel)
    is_app_channel                           0x00003c01   Thumb Code    16  nrfx_ppi.o(i.is_app_channel)
    i.is_programmable_app_channel            0x00003c10   Section        0  nrfx_ppi.o(i.is_programmable_app_channel)
    is_programmable_app_channel              0x00003c11   Thumb Code    24  nrfx_ppi.o(i.is_programmable_app_channel)
    i.isrMessageGet                          0x00003c28   Section        0  rt_cmsis.o(i.isrMessageGet)
    i.isrMessagePut                          0x00003c52   Section        0  rt_cmsis.o(i.isrMessagePut)
    i.isrSignalSet                           0x00003c7e   Section        0  rt_cmsis.o(i.isrSignalSet)
    i.isr_evt_set                            0x00003ca4   Section        0  rt_event.o(i.isr_evt_set)
    i.isr_mbx_receive                        0x00003ccc   Section        0  rt_mailbox.o(i.isr_mbx_receive)
    i.isr_mbx_send                           0x00003d22   Section        0  rt_mailbox.o(i.isr_mbx_send)
    i.main                                   0x00003d30   Section        0  main.o(i.main)
    i.mpu_6050_I2C_register_read             0x00003d6c   Section        0  mpu6050.o(i.mpu_6050_I2C_register_read)
    i.mpu_6050_init                          0x00003dc4   Section        0  mpu6050.o(i.mpu_6050_init)
    i.mpu_6050_read_acc                      0x00003ed0   Section        0  mpu6050.o(i.mpu_6050_read_acc)
    i.mpu_6050_read_gyro                     0x00003f50   Section        0  mpu6050.o(i.mpu_6050_read_gyro)
    i.nrf_bitmask_bit_is_set                 0x00003fdc   Section        0  nrfx_gpiote.o(i.nrf_bitmask_bit_is_set)
    nrf_bitmask_bit_is_set                   0x00003fdd   Thumb Code    22  nrfx_gpiote.o(i.nrf_bitmask_bit_is_set)
    i.nrf_bitmask_bit_set                    0x00003ff2   Section        0  nrfx_gpiote.o(i.nrf_bitmask_bit_set)
    nrf_bitmask_bit_set                      0x00003ff3   Thumb Code    22  nrfx_gpiote.o(i.nrf_bitmask_bit_set)
    i.nrf_drv_ppi_init                       0x00004008   Section        0  nrf_drv_ppi.o(i.nrf_drv_ppi_init)
    i.nrf_drv_spis_init                      0x00004024   Section        0  nrf_drv_spis.o(i.nrf_drv_spis_init)
    i.nrf_drv_twi_init                       0x00004050   Section        0  nrf_drv_twi.o(i.nrf_drv_twi_init)
    i.nrf_drv_twi_tx                         0x000040a0   Section        0  mpu6050.o(i.nrf_drv_twi_tx)
    nrf_drv_twi_tx                           0x000040a1   Thumb Code    44  mpu6050.o(i.nrf_drv_twi_tx)
    i.nrf_gpio_cfg                           0x000040cc   Section        0  nrfx_uart.o(i.nrf_gpio_cfg)
    nrf_gpio_cfg                             0x000040cd   Thumb Code    40  nrfx_uart.o(i.nrf_gpio_cfg)
    i.nrf_gpio_cfg                           0x000040f4   Section        0  nrfx_gpiote.o(i.nrf_gpio_cfg)
    nrf_gpio_cfg                             0x000040f5   Thumb Code    40  nrfx_gpiote.o(i.nrf_gpio_cfg)
    i.nrf_gpio_cfg                           0x0000411c   Section        0  nrfx_twi.o(i.nrf_gpio_cfg)
    nrf_gpio_cfg                             0x0000411d   Thumb Code    40  nrfx_twi.o(i.nrf_gpio_cfg)
    i.nrf_gpio_cfg                           0x00004144   Section        0  nrfx_spis.o(i.nrf_gpio_cfg)
    nrf_gpio_cfg                             0x00004145   Thumb Code    40  nrfx_spis.o(i.nrf_gpio_cfg)
    i.nrf_gpio_cfg_input                     0x0000416c   Section        0  nrfx_uart.o(i.nrf_gpio_cfg_input)
    nrf_gpio_cfg_input                       0x0000416d   Thumb Code    26  nrfx_uart.o(i.nrf_gpio_cfg_input)
    i.nrf_gpio_cfg_output                    0x00004186   Section        0  nrfx_uart.o(i.nrf_gpio_cfg_output)
    nrf_gpio_cfg_output                      0x00004187   Thumb Code    24  nrfx_uart.o(i.nrf_gpio_cfg_output)
    i.nrf_gpio_cfg_sense_set                 0x0000419e   Section        0  nrfx_gpiote.o(i.nrf_gpio_cfg_sense_set)
    nrf_gpio_cfg_sense_set                   0x0000419f   Thumb Code    50  nrfx_gpiote.o(i.nrf_gpio_cfg_sense_set)
    i.nrf_gpio_pin_clear                     0x000041d0   Section        0  nrf_drv_twi.o(i.nrf_gpio_pin_clear)
    nrf_gpio_pin_clear                       0x000041d1   Thumb Code    22  nrf_drv_twi.o(i.nrf_gpio_pin_clear)
    i.nrf_gpio_pin_read                      0x000041e6   Section        0  nrfx_gpiote.o(i.nrf_gpio_pin_read)
    nrf_gpio_pin_read                        0x000041e7   Thumb Code    24  nrfx_gpiote.o(i.nrf_gpio_pin_read)
    i.nrf_gpio_pin_set                       0x000041fe   Section        0  nrfx_uart.o(i.nrf_gpio_pin_set)
    nrf_gpio_pin_set                         0x000041ff   Thumb Code    22  nrfx_uart.o(i.nrf_gpio_pin_set)
    i.nrf_gpio_pin_set                       0x00004214   Section        0  nrf_drv_twi.o(i.nrf_gpio_pin_set)
    nrf_gpio_pin_set                         0x00004215   Thumb Code    22  nrf_drv_twi.o(i.nrf_gpio_pin_set)
    i.nrf_gpio_ports_read                    0x0000422c   Section        0  nrfx_gpiote.o(i.nrf_gpio_ports_read)
    nrf_gpio_ports_read                      0x0000422d   Thumb Code    36  nrfx_gpiote.o(i.nrf_gpio_ports_read)
    i.nrf_gpiote_event_addr_get              0x00004254   Section        0  nrfx_gpiote.o(i.nrf_gpiote_event_addr_get)
    nrf_gpiote_event_addr_get                0x00004255   Thumb Code     8  nrfx_gpiote.o(i.nrf_gpiote_event_addr_get)
    i.nrf_gpiote_event_clear                 0x00004260   Section        0  nrfx_gpiote.o(i.nrf_gpiote_event_clear)
    nrf_gpiote_event_clear                   0x00004261   Thumb Code    28  nrfx_gpiote.o(i.nrf_gpiote_event_clear)
    i.nrf_gpiote_event_is_set                0x0000427c   Section        0  nrfx_gpiote.o(i.nrf_gpiote_event_is_set)
    nrf_gpiote_event_is_set                  0x0000427d   Thumb Code    22  nrfx_gpiote.o(i.nrf_gpiote_event_is_set)
    i.nrf_gpiote_int_enable                  0x00004294   Section        0  nrfx_gpiote.o(i.nrf_gpiote_int_enable)
    nrf_gpiote_int_enable                    0x00004295   Thumb Code     6  nrfx_gpiote.o(i.nrf_gpiote_int_enable)
    i.nrf_pwm_event_check                    0x000042a0   Section        0  nrfx_pwm.o(i.nrf_pwm_event_check)
    nrf_pwm_event_check                      0x000042a1   Thumb Code    14  nrfx_pwm.o(i.nrf_pwm_event_check)
    i.nrf_pwm_event_clear                    0x000042ae   Section        0  nrfx_pwm.o(i.nrf_pwm_event_clear)
    nrf_pwm_event_clear                      0x000042af   Thumb Code    14  nrfx_pwm.o(i.nrf_pwm_event_clear)
    i.nrf_pwm_int_set                        0x000042bc   Section        0  nrfx_pwm.o(i.nrf_pwm_int_set)
    nrf_pwm_int_set                          0x000042bd   Thumb Code     6  nrfx_pwm.o(i.nrf_pwm_int_set)
    i.nrf_pwm_loop_set                       0x000042c2   Section        0  nrfx_pwm.o(i.nrf_pwm_loop_set)
    nrf_pwm_loop_set                         0x000042c3   Thumb Code     6  nrfx_pwm.o(i.nrf_pwm_loop_set)
    i.nrf_pwm_sequence_set                   0x000042c8   Section        0  nrfx_pwm.o(i.nrf_pwm_sequence_set)
    nrf_pwm_sequence_set                     0x000042c9   Thumb Code    60  nrfx_pwm.o(i.nrf_pwm_sequence_set)
    i.nrf_pwm_shorts_set                     0x00004304   Section        0  nrfx_pwm.o(i.nrf_pwm_shorts_set)
    nrf_pwm_shorts_set                       0x00004305   Thumb Code     6  nrfx_pwm.o(i.nrf_pwm_shorts_set)
    i.nrf_pwm_task_trigger                   0x0000430a   Section        0  nrfx_pwm.o(i.nrf_pwm_task_trigger)
    nrf_pwm_task_trigger                     0x0000430b   Thumb Code     6  nrfx_pwm.o(i.nrf_pwm_task_trigger)
    i.nrf_saadc_buffer_init                  0x00004310   Section        0  nrfx_saadc.o(i.nrf_saadc_buffer_init)
    nrf_saadc_buffer_init                    0x00004311   Thumb Code    10  nrfx_saadc.o(i.nrf_saadc_buffer_init)
    i.nrf_saadc_channel_input_set            0x00004320   Section        0  nrfx_saadc.o(i.nrf_saadc_channel_input_set)
    nrf_saadc_channel_input_set              0x00004321   Thumb Code    18  nrfx_saadc.o(i.nrf_saadc_channel_input_set)
    i.nrf_saadc_event_check                  0x00004338   Section        0  nrfx_saadc.o(i.nrf_saadc_event_check)
    nrf_saadc_event_check                    0x00004339   Thumb Code    16  nrfx_saadc.o(i.nrf_saadc_event_check)
    i.nrf_saadc_event_clear                  0x0000434c   Section        0  nrfx_saadc.o(i.nrf_saadc_event_clear)
    nrf_saadc_event_clear                    0x0000434d   Thumb Code    18  nrfx_saadc.o(i.nrf_saadc_event_clear)
    i.nrf_saadc_int_disable                  0x00004364   Section        0  nrfx_saadc.o(i.nrf_saadc_int_disable)
    nrf_saadc_int_disable                    0x00004365   Thumb Code     6  nrfx_saadc.o(i.nrf_saadc_int_disable)
    i.nrf_saadc_int_enable                   0x00004370   Section        0  nrfx_saadc.o(i.nrf_saadc_int_enable)
    nrf_saadc_int_enable                     0x00004371   Thumb Code     6  nrfx_saadc.o(i.nrf_saadc_int_enable)
    i.nrf_saadc_task_trigger                 0x0000437c   Section        0  nrfx_saadc.o(i.nrf_saadc_task_trigger)
    nrf_saadc_task_trigger                   0x0000437d   Thumb Code     8  nrfx_saadc.o(i.nrf_saadc_task_trigger)
    i.nrf_spis_event_check                   0x00004388   Section        0  nrfx_spis.o(i.nrf_spis_event_check)
    nrf_spis_event_check                     0x00004389   Thumb Code    14  nrfx_spis.o(i.nrf_spis_event_check)
    i.nrf_spis_event_clear                   0x00004396   Section        0  nrfx_spis.o(i.nrf_spis_event_clear)
    nrf_spis_event_clear                     0x00004397   Thumb Code    14  nrfx_spis.o(i.nrf_spis_event_clear)
    i.nrf_spis_rx_buffer_set                 0x000043a4   Section        0  nrfx_spis.o(i.nrf_spis_rx_buffer_set)
    nrf_spis_rx_buffer_set                   0x000043a5   Thumb Code    12  nrfx_spis.o(i.nrf_spis_rx_buffer_set)
    i.nrf_spis_task_trigger                  0x000043b0   Section        0  nrfx_spis.o(i.nrf_spis_task_trigger)
    nrf_spis_task_trigger                    0x000043b1   Thumb Code     6  nrfx_spis.o(i.nrf_spis_task_trigger)
    i.nrf_spis_tx_buffer_set                 0x000043b6   Section        0  nrfx_spis.o(i.nrf_spis_tx_buffer_set)
    nrf_spis_tx_buffer_set                   0x000043b7   Thumb Code    12  nrfx_spis.o(i.nrf_spis_tx_buffer_set)
    i.nrf_timer_compare_event_get            0x000043c2   Section        0  nrfx_timer.o(i.nrf_timer_compare_event_get)
    nrf_timer_compare_event_get              0x000043c3   Thumb Code    14  nrfx_timer.o(i.nrf_timer_compare_event_get)
    i.nrf_timer_compare_int_get              0x000043d0   Section        0  nrfx_timer.o(i.nrf_timer_compare_int_get)
    nrf_timer_compare_int_get                0x000043d1   Thumb Code    10  nrfx_timer.o(i.nrf_timer_compare_int_get)
    i.nrf_timer_event_clear                  0x000043da   Section        0  nrfx_timer.o(i.nrf_timer_event_clear)
    nrf_timer_event_clear                    0x000043db   Thumb Code    14  nrfx_timer.o(i.nrf_timer_event_clear)
    i.nrf_timer_int_disable                  0x000043e8   Section        0  nrfx_timer.o(i.nrf_timer_int_disable)
    nrf_timer_int_disable                    0x000043e9   Thumb Code     6  nrfx_timer.o(i.nrf_timer_int_disable)
    i.nrf_timer_int_enable                   0x000043ee   Section        0  nrfx_timer.o(i.nrf_timer_int_enable)
    nrf_timer_int_enable                     0x000043ef   Thumb Code     6  nrfx_timer.o(i.nrf_timer_int_enable)
    i.nrf_timer_shorts_disable               0x000043f4   Section        0  nrfx_timer.o(i.nrf_timer_shorts_disable)
    nrf_timer_shorts_disable                 0x000043f5   Thumb Code    12  nrfx_timer.o(i.nrf_timer_shorts_disable)
    i.nrf_timer_task_trigger                 0x00004400   Section        0  nrfx_timer.o(i.nrf_timer_task_trigger)
    nrf_timer_task_trigger                   0x00004401   Thumb Code     6  nrfx_timer.o(i.nrf_timer_task_trigger)
    i.nrf_twi_errorsrc_get_and_clear         0x00004406   Section        0  nrfx_twi.o(i.nrf_twi_errorsrc_get_and_clear)
    nrf_twi_errorsrc_get_and_clear           0x00004407   Thumb Code    12  nrfx_twi.o(i.nrf_twi_errorsrc_get_and_clear)
    i.nrf_twi_event_check                    0x00004412   Section        0  nrfx_twi.o(i.nrf_twi_event_check)
    nrf_twi_event_check                      0x00004413   Thumb Code    14  nrfx_twi.o(i.nrf_twi_event_check)
    i.nrf_twi_event_clear                    0x00004420   Section        0  nrfx_twi.o(i.nrf_twi_event_clear)
    nrf_twi_event_clear                      0x00004421   Thumb Code    14  nrfx_twi.o(i.nrf_twi_event_clear)
    i.nrf_twi_int_disable                    0x0000442e   Section        0  nrfx_twi.o(i.nrf_twi_int_disable)
    nrf_twi_int_disable                      0x0000442f   Thumb Code     6  nrfx_twi.o(i.nrf_twi_int_disable)
    i.nrf_twi_int_enable                     0x00004434   Section        0  nrfx_twi.o(i.nrf_twi_int_enable)
    nrf_twi_int_enable                       0x00004435   Thumb Code     6  nrfx_twi.o(i.nrf_twi_int_enable)
    i.nrf_twi_shorts_set                     0x0000443a   Section        0  nrfx_twi.o(i.nrf_twi_shorts_set)
    nrf_twi_shorts_set                       0x0000443b   Thumb Code     6  nrfx_twi.o(i.nrf_twi_shorts_set)
    i.nrf_twi_task_trigger                   0x00004440   Section        0  nrfx_twi.o(i.nrf_twi_task_trigger)
    nrf_twi_task_trigger                     0x00004441   Thumb Code     6  nrfx_twi.o(i.nrf_twi_task_trigger)
    i.nrf_uart_errorsrc_get_and_clear        0x00004446   Section        0  nrfx_uart.o(i.nrf_uart_errorsrc_get_and_clear)
    nrf_uart_errorsrc_get_and_clear          0x00004447   Thumb Code    12  nrfx_uart.o(i.nrf_uart_errorsrc_get_and_clear)
    i.nrf_uart_event_check                   0x00004452   Section        0  nrfx_uart.o(i.nrf_uart_event_check)
    nrf_uart_event_check                     0x00004453   Thumb Code    14  nrfx_uart.o(i.nrf_uart_event_check)
    i.nrf_uart_event_clear                   0x00004460   Section        0  nrfx_uart.o(i.nrf_uart_event_clear)
    nrf_uart_event_clear                     0x00004461   Thumb Code    14  nrfx_uart.o(i.nrf_uart_event_clear)
    i.nrf_uart_hwfc_pins_set                 0x0000446e   Section        0  nrfx_uart.o(i.nrf_uart_hwfc_pins_set)
    nrf_uart_hwfc_pins_set                   0x0000446f   Thumb Code    10  nrfx_uart.o(i.nrf_uart_hwfc_pins_set)
    i.nrf_uart_int_disable                   0x00004478   Section        0  nrfx_uart.o(i.nrf_uart_int_disable)
    nrf_uart_int_disable                     0x00004479   Thumb Code     6  nrfx_uart.o(i.nrf_uart_int_disable)
    i.nrf_uart_int_enable                    0x0000447e   Section        0  nrfx_uart.o(i.nrf_uart_int_enable)
    nrf_uart_int_enable                      0x0000447f   Thumb Code     6  nrfx_uart.o(i.nrf_uart_int_enable)
    i.nrf_uart_int_enable_check              0x00004484   Section        0  nrfx_uart.o(i.nrf_uart_int_enable_check)
    nrf_uart_int_enable_check                0x00004485   Thumb Code    18  nrfx_uart.o(i.nrf_uart_int_enable_check)
    i.nrf_uart_task_trigger                  0x00004496   Section        0  nrfx_uart.o(i.nrf_uart_task_trigger)
    nrf_uart_task_trigger                    0x00004497   Thumb Code     6  nrfx_uart.o(i.nrf_uart_task_trigger)
    i.nrf_uart_txrx_pins_set                 0x0000449c   Section        0  nrfx_uart.o(i.nrf_uart_txrx_pins_set)
    nrf_uart_txrx_pins_set                   0x0000449d   Thumb Code    10  nrfx_uart.o(i.nrf_uart_txrx_pins_set)
    i.nrfx_coredep_delay_us                  0x000044a8   Section        0  nrf_drv_twi.o(i.nrfx_coredep_delay_us)
    nrfx_coredep_delay_us                    0x000044a9   Thumb Code    20  nrf_drv_twi.o(i.nrfx_coredep_delay_us)
    i.nrfx_get_irq_number                    0x000044c0   Section        0  nrfx_uart.o(i.nrfx_get_irq_number)
    nrfx_get_irq_number                      0x000044c1   Thumb Code     8  nrfx_uart.o(i.nrfx_get_irq_number)
    i.nrfx_get_irq_number                    0x000044c8   Section        0  nrfx_timer.o(i.nrfx_get_irq_number)
    nrfx_get_irq_number                      0x000044c9   Thumb Code     8  nrfx_timer.o(i.nrfx_get_irq_number)
    i.nrfx_get_irq_number                    0x000044d0   Section        0  nrfx_twi.o(i.nrfx_get_irq_number)
    nrfx_get_irq_number                      0x000044d1   Thumb Code     8  nrfx_twi.o(i.nrfx_get_irq_number)
    i.nrfx_get_irq_number                    0x000044d8   Section        0  nrfx_spis.o(i.nrfx_get_irq_number)
    nrfx_get_irq_number                      0x000044d9   Thumb Code     8  nrfx_spis.o(i.nrfx_get_irq_number)
    i.nrfx_get_irq_number                    0x000044e0   Section        0  nrfx_pwm.o(i.nrfx_get_irq_number)
    nrfx_get_irq_number                      0x000044e1   Thumb Code     8  nrfx_pwm.o(i.nrfx_get_irq_number)
    i.nrfx_gpiote_in_event_enable            0x000044e8   Section        0  nrfx_gpiote.o(i.nrfx_gpiote_in_event_enable)
    i.nrfx_gpiote_in_init                    0x00004594   Section        0  nrfx_gpiote.o(i.nrfx_gpiote_in_init)
    i.nrfx_gpiote_init                       0x00004688   Section        0  nrfx_gpiote.o(i.nrfx_gpiote_init)
    i.nrfx_is_in_ram                         0x00004740   Section        0  nrfx_spis.o(i.nrfx_is_in_ram)
    nrfx_is_in_ram                           0x00004741   Thumb Code    20  nrfx_spis.o(i.nrfx_is_in_ram)
    i.nrfx_ppi_channel_alloc                 0x00004754   Section        0  nrfx_ppi.o(i.nrfx_ppi_channel_alloc)
    i.nrfx_ppi_channel_assign                0x000047c0   Section        0  nrfx_ppi.o(i.nrfx_ppi_channel_assign)
    i.nrfx_ppi_channel_enable                0x00004808   Section        0  nrfx_ppi.o(i.nrfx_ppi_channel_enable)
    i.nrfx_ppi_channel_to_mask               0x00004844   Section        0  nrfx_ppi.o(i.nrfx_ppi_channel_to_mask)
    nrfx_ppi_channel_to_mask                 0x00004845   Thumb Code     8  nrfx_ppi.o(i.nrfx_ppi_channel_to_mask)
    i.nrfx_pwm_init                          0x0000484c   Section        0  nrfx_pwm.o(i.nrfx_pwm_init)
    i.nrfx_pwm_simple_playback               0x00004958   Section        0  nrfx_pwm.o(i.nrfx_pwm_simple_playback)
    i.nrfx_saadc_buffer_convert              0x000049dc   Section        0  nrfx_saadc.o(i.nrfx_saadc_buffer_convert)
    i.nrfx_saadc_channel_init                0x00004a9c   Section        0  nrfx_saadc.o(i.nrfx_saadc_channel_init)
    i.nrfx_saadc_init                        0x00004b74   Section        0  nrfx_saadc.o(i.nrfx_saadc_init)
    i.nrfx_saadc_sample_task_get             0x00004c64   Section        0  nrfx_saadc.o(i.nrfx_saadc_sample_task_get)
    i.nrfx_spis_buffers_set                  0x00004c84   Section        0  nrfx_spis.o(i.nrfx_spis_buffers_set)
    i.nrfx_spis_init                         0x00004d2c   Section        0  nrfx_spis.o(i.nrfx_spis_init)
    i.nrfx_timer_compare                     0x00004f20   Section        0  nrfx_timer.o(i.nrfx_timer_compare)
    i.nrfx_timer_enable                      0x00004f68   Section        0  nrfx_timer.o(i.nrfx_timer_enable)
    i.nrfx_timer_extended_compare            0x00004f8c   Section        0  nrfx_timer.o(i.nrfx_timer_extended_compare)
    i.nrfx_timer_init                        0x00004fd0   Section        0  nrfx_timer.o(i.nrfx_timer_init)
    i.nrfx_twi_enable                        0x000050c4   Section        0  nrfx_twi.o(i.nrfx_twi_enable)
    i.nrfx_twi_init                          0x000050ec   Section        0  nrfx_twi.o(i.nrfx_twi_init)
    i.nrfx_twi_rx                            0x000051ec   Section        0  nrfx_twi.o(i.nrfx_twi_rx)
    i.nrfx_twi_tx                            0x0000521c   Section        0  nrfx_twi.o(i.nrfx_twi_tx)
    i.nrfx_twi_xfer                          0x0000525c   Section        0  nrfx_twi.o(i.nrfx_twi_xfer)
    i.nrfx_uart_init                         0x0000528c   Section        0  nrfx_uart.o(i.nrfx_uart_init)
    i.nrfx_uart_tx                           0x000052f8   Section        0  nrfx_uart.o(i.nrfx_uart_tx)
    i.nrfx_uart_tx_in_progress               0x00005384   Section        0  nrfx_uart.o(i.nrfx_uart_tx_in_progress)
    i.osDelay                                0x000053a8   Section        0  rt_cmsis.o(i.osDelay)
    i.osKernelInitialize                     0x000053c0   Section        0  rt_cmsis.o(i.osKernelInitialize)
    i.osKernelStart                          0x000053e4   Section        0  rt_cmsis.o(i.osKernelStart)
    i.osMailAlloc                            0x00005450   Section        0  rt_cmsis.o(i.osMailAlloc)
    i.osMailCreate                           0x0000546c   Section        0  rt_cmsis.o(i.osMailCreate)
    i.osMailFree                             0x00005498   Section        0  rt_cmsis.o(i.osMailFree)
    i.osMailGet                              0x000054b4   Section        0  rt_cmsis.o(i.osMailGet)
    i.osMailPut                              0x000054ca   Section        0  rt_cmsis.o(i.osMailPut)
    i.osMessageGet                           0x000054e0   Section        0  rt_cmsis.o(i.osMessageGet)
    i.osMessagePut                           0x000054f8   Section        0  rt_cmsis.o(i.osMessagePut)
    i.osSignalSet                            0x00005510   Section        0  rt_cmsis.o(i.osSignalSet)
    i.osSignalWait                           0x00005528   Section        0  rt_cmsis.o(i.osSignalWait)
    i.osThreadCreate                         0x00005540   Section        0  rt_cmsis.o(i.osThreadCreate)
    i.osThreadExit                           0x0000556c   Section        0  rt_cmsis.o(i.osThreadExit)
    i.osTimerCall                            0x00005584   Section        0  rt_cmsis.o(i.osTimerCall)
    i.osTimerThread                          0x00005590   Section        0  rt_cmsis.o(i.osTimerThread)
    i.os_error                               0x000055bc   Section        0  rtx_conf_cm.o(i.os_error)
    i.os_idle_demon                          0x000055de   Section        0  rtx_conf_cm.o(i.os_idle_demon)
    i.os_tick_init                           0x000055e4   Section        0  rt_system.o(i.os_tick_init)
    i.os_tick_irqack                         0x0000560c   Section        0  rt_system.o(i.os_tick_irqack)
    i.pin_configured_set                     0x00005610   Section        0  nrfx_gpiote.o(i.pin_configured_set)
    pin_configured_set                       0x00005611   Thumb Code    14  nrfx_gpiote.o(i.pin_configured_set)
    i.pin_in_use_by_gpiote                   0x00005624   Section        0  nrfx_gpiote.o(i.pin_in_use_by_gpiote)
    pin_in_use_by_gpiote                     0x00005625   Thumb Code    22  nrfx_gpiote.o(i.pin_in_use_by_gpiote)
    i.pin_in_use_by_port                     0x00005640   Section        0  nrfx_gpiote.o(i.pin_in_use_by_port)
    pin_in_use_by_port                       0x00005641   Thumb Code    18  nrfx_gpiote.o(i.pin_in_use_by_port)
    i.pin_in_use_by_te                       0x00005658   Section        0  nrfx_gpiote.o(i.pin_in_use_by_te)
    pin_in_use_by_te                         0x00005659   Thumb Code    26  nrfx_gpiote.o(i.pin_in_use_by_te)
    i.pin_in_use_clear                       0x00005678   Section        0  nrfx_gpiote.o(i.pin_in_use_clear)
    pin_in_use_clear                         0x00005679   Thumb Code     8  nrfx_gpiote.o(i.pin_in_use_clear)
    i.rt_alloc_box                           0x00005684   Section        0  rt_membox.o(i.rt_alloc_box)
    i.rt_alloc_mem                           0x0000569e   Section        0  rt_memory.o(i.rt_alloc_mem)
    i.rt_block                               0x000056dc   Section        0  rt_task.o(i.rt_block)
    i.rt_chk_robin                           0x00005714   Section        0  rt_robin.o(i.rt_chk_robin)
    i.rt_dec_dly                             0x0000575c   Section        0  rt_list.o(i.rt_dec_dly)
    i.rt_dispatch                            0x000057cc   Section        0  rt_task.o(i.rt_dispatch)
    i.rt_dly_wait                            0x00005810   Section        0  rt_time.o(i.rt_dly_wait)
    i.rt_evt_psh                             0x00005818   Section        0  rt_event.o(i.rt_evt_psh)
    i.rt_evt_set                             0x00005868   Section        0  rt_event.o(i.rt_evt_set)
    i.rt_evt_wait                            0x000058c4   Section        0  rt_event.o(i.rt_evt_wait)
    i.rt_free_box                            0x00005900   Section        0  rt_membox.o(i.rt_free_box)
    i.rt_free_mem                            0x0000592c   Section        0  rt_memory.o(i.rt_free_mem)
    i.rt_get_first                           0x00005954   Section        0  rt_list.o(i.rt_get_first)
    i.rt_id2obj                              0x0000597c   Section        0  rt_cmsis.o(i.rt_id2obj)
    rt_id2obj                                0x0000597d   Thumb Code     8  rt_cmsis.o(i.rt_id2obj)
    i.rt_init_context                        0x00005984   Section        0  rt_task.o(i.rt_init_context)
    rt_init_context                          0x00005985   Thumb Code    66  rt_task.o(i.rt_init_context)
    i.rt_init_mem                            0x000059cc   Section        0  rt_memory.o(i.rt_init_mem)
    i.rt_init_robin                          0x000059e8   Section        0  rt_robin.o(i.rt_init_robin)
    i.rt_init_stack                          0x00005a00   Section        0  hal_cm.o(i.rt_init_stack)
    i.rt_mbx_check                           0x00005a80   Section        0  rt_mailbox.o(i.rt_mbx_check)
    i.rt_mbx_init                            0x00005a88   Section        0  rt_mailbox.o(i.rt_mbx_init)
    i.rt_mbx_psh                             0x00005aa4   Section        0  rt_mailbox.o(i.rt_mbx_psh)
    i.rt_mbx_send                            0x00005b94   Section        0  rt_mailbox.o(i.rt_mbx_send)
    i.rt_mbx_wait                            0x00005c2c   Section        0  rt_mailbox.o(i.rt_mbx_wait)
    i.rt_ms2tick                             0x00005ce0   Section        0  rt_cmsis.o(i.rt_ms2tick)
    rt_ms2tick                               0x00005ce1   Thumb Code    58  rt_cmsis.o(i.rt_ms2tick)
    i.rt_pop_req                             0x00005d24   Section        0  rt_system.o(i.rt_pop_req)
    i.rt_psh_req                             0x00005da0   Section        0  rt_system.o(i.rt_psh_req)
    i.rt_psq_enq                             0x00005dc0   Section        0  rt_list.o(i.rt_psq_enq)
    i.rt_put_dly                             0x00005e1c   Section        0  rt_list.o(i.rt_put_dly)
    i.rt_put_prio                            0x00005e64   Section        0  rt_list.o(i.rt_put_prio)
    i.rt_put_rdy_first                       0x00005e9c   Section        0  rt_list.o(i.rt_put_rdy_first)
    i.rt_resort_prio                         0x00005eb0   Section        0  rt_list.o(i.rt_resort_prio)
    i.rt_ret_regs                            0x00005ee4   Section        0  hal_cm.o(i.rt_ret_regs)
    rt_ret_regs                              0x00005ee5   Thumb Code    16  hal_cm.o(i.rt_ret_regs)
    i.rt_ret_val                             0x00005ef4   Section        0  hal_cm.o(i.rt_ret_val)
    i.rt_ret_val2                            0x00005f00   Section        0  hal_cm.o(i.rt_ret_val2)
    i.rt_rmv_dly                             0x00005f10   Section        0  rt_list.o(i.rt_rmv_dly)
    i.rt_rmv_list                            0x00005f38   Section        0  rt_list.o(i.rt_rmv_list)
    i.rt_sem_psh                             0x00005f68   Section        0  rt_semaphore.o(i.rt_sem_psh)
    i.rt_stk_check                           0x00005f9c   Section        0  rt_system.o(i.rt_stk_check)
    i.rt_switch_req                          0x00005fc0   Section        0  rt_task.o(i.rt_switch_req)
    i.rt_sys_init                            0x00005fe8   Section        0  rt_task.o(i.rt_sys_init)
    i.rt_sys_start                           0x000060b4   Section        0  rt_task.o(i.rt_sys_start)
    i.rt_systick                             0x0000612c   Section        0  rt_system.o(i.rt_systick)
    i.rt_tid2ptcb                            0x0000616c   Section        0  rt_cmsis.o(i.rt_tid2ptcb)
    rt_tid2ptcb                              0x0000616d   Thumb Code    18  rt_cmsis.o(i.rt_tid2ptcb)
    i.rt_timer_insert                        0x00006180   Section        0  rt_cmsis.o(i.rt_timer_insert)
    rt_timer_insert                          0x00006181   Thumb Code    48  rt_cmsis.o(i.rt_timer_insert)
    i.rt_tsk_create                          0x000061b4   Section        0  rt_task.o(i.rt_tsk_create)
    i.rt_tsk_delete                          0x0000623c   Section        0  rt_task.o(i.rt_tsk_delete)
    i.rt_tsk_prio                            0x000063b8   Section        0  rt_task.o(i.rt_tsk_prio)
    i.rt_tsk_self                            0x00006434   Section        0  rt_task.o(i.rt_tsk_self)
    i.rx_byte                                0x00006444   Section        0  nrfx_uart.o(i.rx_byte)
    rx_byte                                  0x00006445   Thumb Code    62  nrfx_uart.o(i.rx_byte)
    i.rx_done_event                          0x00006482   Section        0  nrfx_uart.o(i.rx_done_event)
    rx_done_event                            0x00006483   Thumb Code    28  nrfx_uart.o(i.rx_done_event)
    i.saadc_init                             0x000064a0   Section        0  curr_saadc.o(i.saadc_init)
    i.saadc_sampling_event_enable            0x00006544   Section        0  curr_saadc.o(i.saadc_sampling_event_enable)
    i.saadc_sampling_event_init              0x00006554   Section        0  curr_saadc.o(i.saadc_sampling_event_init)
    i.spis_event_handler                     0x000065fc   Section        0  nrf_drv_spis.o(i.spis_event_handler)
    spis_event_handler                       0x000065fd   Thumb Code    22  nrf_drv_spis.o(i.spis_event_handler)
    i.spis_irq_handler                       0x00006618   Section        0  nrfx_spis.o(i.spis_irq_handler)
    spis_irq_handler                         0x00006619   Thumb Code   124  nrfx_spis.o(i.spis_irq_handler)
    i.spis_state_change                      0x00006694   Section        0  nrfx_spis.o(i.spis_state_change)
    spis_state_change                        0x00006695   Thumb Code    20  nrfx_spis.o(i.spis_state_change)
    i.spis_state_entry_action_execute        0x000066a8   Section        0  nrfx_spis.o(i.spis_state_entry_action_execute)
    spis_state_entry_action_execute          0x000066a9   Thumb Code    94  nrfx_spis.o(i.spis_state_entry_action_execute)
    i.sqrt                                   0x00006706   Section        0  sqrt.o(i.sqrt)
    i.start_playback                         0x00006774   Section        0  nrfx_pwm.o(i.start_playback)
    start_playback                           0x00006775   Thumb Code   106  nrfx_pwm.o(i.start_playback)
    i.svcDelay                               0x000067de   Section        0  rt_cmsis.o(i.svcDelay)
    i.svcKernelInitialize                    0x000067f0   Section        0  rt_cmsis.o(i.svcKernelInitialize)
    i.svcKernelStart                         0x00006860   Section        0  rt_cmsis.o(i.svcKernelStart)
    i.svcMailCreate                          0x000068a8   Section        0  rt_cmsis.o(i.svcMailCreate)
    i.svcMessageCreate                       0x000068ea   Section        0  rt_cmsis.o(i.svcMessageCreate)
    i.svcMessageGet                          0x0000690e   Section        0  rt_cmsis.o(i.svcMessageGet)
    i.svcMessagePut                          0x00006948   Section        0  rt_cmsis.o(i.svcMessagePut)
    i.svcSignalSet                           0x0000697e   Section        0  rt_cmsis.o(i.svcSignalSet)
    i.svcSignalWait                          0x000069a4   Section        0  rt_cmsis.o(i.svcSignalWait)
    i.svcThreadCreate                        0x000069f8   Section        0  rt_cmsis.o(i.svcThreadCreate)
    i.svcThreadGetId                         0x00006a64   Section        0  rt_cmsis.o(i.svcThreadGetId)
    i.svcThreadTerminate                     0x00006a80   Section        0  rt_cmsis.o(i.svcThreadTerminate)
    i.svcTimerCall                           0x00006ab8   Section        0  rt_cmsis.o(i.svcTimerCall)
    i.sysMailAlloc                           0x00006ad0   Section        0  rt_cmsis.o(i.sysMailAlloc)
    i.sysMailFree                            0x00006b28   Section        0  rt_cmsis.o(i.sysMailFree)
    i.sysTimerTick                           0x00006b88   Section        0  rt_cmsis.o(i.sysTimerTick)
    i.timer_handler                          0x00006be4   Section        0  curr_saadc.o(i.timer_handler)
    i.twi_clear_bus                          0x00006be8   Section        0  nrf_drv_twi.o(i.twi_clear_bus)
    twi_clear_bus                            0x00006be9   Thumb Code   146  nrf_drv_twi.o(i.twi_clear_bus)
    i.twi_evt_handler                        0x00006c80   Section        0  nrf_drv_twi.o(i.twi_evt_handler)
    twi_evt_handler                          0x00006c81   Thumb Code    64  nrf_drv_twi.o(i.twi_evt_handler)
    i.twi_init_mpu6050                       0x00006cc8   Section        0  mpu6050.o(i.twi_init_mpu6050)
    i.twi_irq_handler                        0x00006cf4   Section        0  nrfx_twi.o(i.twi_irq_handler)
    twi_irq_handler                          0x00006cf5   Thumb Code   214  nrfx_twi.o(i.twi_irq_handler)
    i.twi_process_error                      0x00006dca   Section        0  nrfx_twi.o(i.twi_process_error)
    twi_process_error                        0x00006dcb   Thumb Code    36  nrfx_twi.o(i.twi_process_error)
    i.twi_receive_byte                       0x00006dee   Section        0  nrfx_twi.o(i.twi_receive_byte)
    twi_receive_byte                         0x00006def   Thumb Code    76  nrfx_twi.o(i.twi_receive_byte)
    i.twi_rx_start_transfer                  0x00006e3c   Section        0  nrfx_twi.o(i.twi_rx_start_transfer)
    twi_rx_start_transfer                    0x00006e3d   Thumb Code   230  nrfx_twi.o(i.twi_rx_start_transfer)
    i.twi_send_byte                          0x00006f28   Section        0  nrfx_twi.o(i.twi_send_byte)
    twi_send_byte                            0x00006f29   Thumb Code    72  nrfx_twi.o(i.twi_send_byte)
    i.twi_transfer                           0x00006f70   Section        0  nrfx_twi.o(i.twi_transfer)
    twi_transfer                             0x00006f71   Thumb Code   294  nrfx_twi.o(i.twi_transfer)
    i.twi_tx_start_transfer                  0x00007098   Section        0  nrfx_twi.o(i.twi_tx_start_transfer)
    twi_tx_start_transfer                    0x00007099   Thumb Code   236  nrfx_twi.o(i.twi_tx_start_transfer)
    i.twi_xfer                               0x00007188   Section        0  nrfx_twi.o(i.twi_xfer)
    twi_xfer                                 0x00007189   Thumb Code   176  nrfx_twi.o(i.twi_xfer)
    i.tx_blocking                            0x0000723c   Section        0  nrfx_uart.o(i.tx_blocking)
    tx_blocking                              0x0000723d   Thumb Code    54  nrfx_uart.o(i.tx_blocking)
    i.tx_byte                                0x00007272   Section        0  nrfx_uart.o(i.tx_byte)
    tx_byte                                  0x00007273   Thumb Code    38  nrfx_uart.o(i.tx_byte)
    i.tx_done_event                          0x00007298   Section        0  nrfx_uart.o(i.tx_done_event)
    tx_done_event                            0x00007299   Thumb Code    32  nrfx_uart.o(i.tx_done_event)
    i.uart_irq_handler                       0x000072b8   Section        0  nrfx_uart.o(i.uart_irq_handler)
    uart_irq_handler                         0x000072b9   Thumb Code   332  nrfx_uart.o(i.uart_irq_handler)
    .constdata                               0x00007404   Section       60  print_server.o(.constdata)
    .constdata                               0x00007440   Section      164  mpu6050.o(.constdata)
    m_PWM_seq                                0x00007440   Data          16  mpu6050.o(.constdata)
    m_twi_mpu_6050                           0x00007488   Data          16  mpu6050.o(.constdata)
    .constdata                               0x000074e4   Section       65  curr_saadc.o(.constdata)
    m_timer                                  0x000074e4   Data           8  curr_saadc.o(.constdata)
    default_config                           0x000074ec   Data           4  curr_saadc.o(.constdata)
    .constdata                               0x00007528   Section       72  spi.o(.constdata)
    spis                                     0x00007528   Data           8  spi.o(.constdata)
    .constdata                               0x00007570   Section       62  nrfx_gpiote.o(.constdata)
    __func__                                 0x00007574   Data          17  nrfx_gpiote.o(.constdata)
    __func__                                 0x00007585   Data          21  nrfx_gpiote.o(.constdata)
    __func__                                 0x0000759a   Data          20  nrfx_gpiote.o(.constdata)
    .constdata                               0x000075b0   Section       60  nrfx_twi.o(.constdata)
    __func__                                 0x000075b0   Data          14  nrfx_twi.o(.constdata)
    __func__                                 0x000075be   Data           9  nrfx_twi.o(.constdata)
    __func__                                 0x000075c7   Data          14  nrfx_twi.o(.constdata)
    .constdata                               0x000075f0   Section        6  nrf_drv_twi.o(.constdata)
    delay_machine_code                       0x000075f0   Data           6  nrf_drv_twi.o(.constdata)
    .constdata                               0x000075f6   Section       40  nrfx_spis.o(.constdata)
    __func__                                 0x000075f6   Data          15  nrfx_spis.o(.constdata)
    csn_gpiote_config                        0x00007605   Data           3  nrfx_spis.o(.constdata)
    __func__                                 0x00007608   Data          22  nrfx_spis.o(.constdata)
    .constdata                               0x00007620   Section      104  rtx_conf_cm.o(.constdata)
    __tagsym$$used                           0x0000763c   Number         0  rtx_conf_cm.o(.constdata)
    __tagsym$$used                           0x00007640   Number         0  rtx_conf_cm.o(.constdata)
    __tagsym$$used                           0x00007644   Number         0  rtx_conf_cm.o(.constdata)
    __tagsym$$used                           0x00007648   Number         0  rtx_conf_cm.o(.constdata)
    .constdata                               0x00007688   Section       80  asin.o(.constdata)
    pS                                       0x00007688   Data          48  asin.o(.constdata)
    qS                                       0x000076b8   Data          32  asin.o(.constdata)
    .constdata                               0x000076d8   Section       48  cos_i.o(.constdata)
    C                                        0x000076d8   Data          48  cos_i.o(.constdata)
    .constdata                               0x00007708   Section      200  rred.o(.constdata)
    pio2s                                    0x00007708   Data          48  rred.o(.constdata)
    twooverpi                                0x00007738   Data         152  rred.o(.constdata)
    .constdata                               0x000077d0   Section       40  sin_i.o(.constdata)
    S                                        0x000077d0   Data          40  sin_i.o(.constdata)
    .data                                    0x20000000   Section       24  print_server.o(.data)
    uart_inst                                0x20000010   Data           8  print_server.o(.data)
    .data                                    0x20000018   Section      108  mpu6050.o(.data)
    m_pwm0                                   0x20000018   Data           8  mpu6050.o(.data)
    m_PWM_seq_values                         0x20000020   Data           8  mpu6050.o(.data)
    .data                                    0x20000084   Section        4  timer.o(.data)
    time_seconds                             0x20000084   Data           4  timer.o(.data)
    .data                                    0x20000088   Section       10  curr_saadc.o(.data)
    m_ppi_channel                            0x20000089   Data           1  curr_saadc.o(.data)
    .data                                    0x20000094   Section       40  spi.o(.data)
    spis_xfer_done                           0x20000094   Data           1  spi.o(.data)
    m_rx_buf                                 0x20000096   Data           4  spi.o(.data)
    m_rx_buf_prev                            0x2000009a   Data           4  spi.o(.data)
    .data                                    0x200000bc   Section        4  app_util_platform.o(.data)
    m_in_critical_region                     0x200000bc   Data           4  app_util_platform.o(.data)
    .data                                    0x200000c0   Section        1  nrf_drv_ppi.o(.data)
    m_drv_state                              0x200000c0   Data           1  nrf_drv_ppi.o(.data)
    .data                                    0x200000c4   Section        5  nrfx_ppi.o(.data)
    m_channels_allocated                     0x200000c4   Data           4  nrfx_ppi.o(.data)
    m_groups_allocated                       0x200000c8   Data           1  nrfx_ppi.o(.data)
    .data                                    0x200000cc   Section       16  nrf_drv_twi.o(.data)
    m_handlers                               0x200000cc   Data           8  nrf_drv_twi.o(.data)
    m_contexts                               0x200000d4   Data           8  nrf_drv_twi.o(.data)
    .data                                    0x200000dc   Section        8  nrfx_pwm.o(.data)
    m_cb                                     0x200000dc   Data           8  nrfx_pwm.o(.data)
    .data                                    0x200000e4   Section       16  rtx_conf_cm.o(.data)
    .data                                    0x200000f4   Section        4  system_nrf52.o(.data)
    __tagsym$$used                           0x200000f4   Number         0  system_nrf52.o(.data)
    .data                                    0x200000f8   Section        8  rt_cmsis.o(.data)
    .data                                    0x20000100   Section        8  rt_task.o(.data)
    .data                                    0x20000108   Section        8  rt_system.o(.data)
    os_lock                                  0x20000108   Data           1  rt_system.o(.data)
    os_psh_flag                              0x20000109   Data           1  rt_system.o(.data)
    pend_flags                               0x2000010a   Data           1  rt_system.o(.data)
    .data                                    0x20000110   Section        4  rt_time.o(.data)
    .data                                    0x20000114   Section        1  hal_cm.o(.data)
    .data                                    0x20000118   Section        8  rt_robin.o(.data)
    .data                                    0x20000120   Section        4  errno.o(.data)
    _errno                                   0x20000120   Data           4  errno.o(.data)
    .bss                                     0x20000124   Section     4380  print_server.o(.bss)
    .bss                                     0x20001240   Section      560  mpu6050.o(.bss)
    .bss                                     0x20001470   Section       16  curr_saadc.o(.bss)
    m_buffer_pool                            0x20001470   Data          16  curr_saadc.o(.bss)
    .bss                                     0x20001480   Section      368  spi.o(.bss)
    m_tx_buf                                 0x20001480   Data          24  spi.o(.bss)
    .bss                                     0x200015f0   Section       44  nrfx_uart.o(.bss)
    m_cb                                     0x200015f0   Data          44  nrfx_uart.o(.bss)
    .bss                                     0x2000161c   Section       76  nrfx_gpiote.o(.bss)
    m_cb                                     0x2000161c   Data          76  nrfx_gpiote.o(.bss)
    .bss                                     0x20001668   Section       48  nrfx_saadc.o(.bss)
    m_cb                                     0x20001668   Data          48  nrfx_saadc.o(.bss)
    .bss                                     0x20001698   Section       12  nrfx_timer.o(.bss)
    m_cb                                     0x20001698   Data          12  nrfx_timer.o(.bss)
    .bss                                     0x200016a4   Section       60  nrfx_twi.o(.bss)
    m_cb                                     0x200016a4   Data          60  nrfx_twi.o(.bss)
    .bss                                     0x200016e0   Section       12  nrf_drv_spis.o(.bss)
    m_handlers                               0x200016e0   Data          12  nrf_drv_spis.o(.bss)
    .bss                                     0x200016ec   Section       56  nrfx_spis.o(.bss)
    m_cb                                     0x200016ec   Data          56  nrfx_spis.o(.bss)
    .bss                                     0x20001728   Section     9008  rtx_conf_cm.o(.bss)
    .bss                                     0x20003a58   Section       52  rt_task.o(.bss)
    .bss                                     0x20003a8c   Section       48  rt_list.o(.bss)
    STACK                                    0x20003ac0   Section     8192  arm_startup_nrf52.o(STACK)

    Global Symbols

    Symbol Name                              Value     Ov Type        Size  Object(Section)

    BuildAttributes$$THM_ISAv4$E$P$D$K$B$S$7EM$VFPi3$EXTD16$VFPS$VFMA$PE$A:L22UL41UL21$X:L11$S22US41US21$IEEE1$IW$USESV6$~STKCKD$USESV7$~SHL$OTIME$ROPI$IEEEX$EBA8$MICROLIB$REQ8$EABIv2 0x00000000   Number         0  anon$$obj.o ABSOLUTE
    __ARM_use_no_argv                        0x00000000   Number         0  main.o ABSOLUTE
    __Vectors                                0x00000000   Data           4  arm_startup_nrf52.o(RESET)
    __cpp_initialize__aeabi_                  - Undefined Weak Reference
    __cxa_finalize                            - Undefined Weak Reference
    __decompress                              - Undefined Weak Reference
    _clock_init                               - Undefined Weak Reference
    _microlib_exit                            - Undefined Weak Reference
    pwr_mgmt_data0$$Base                      - Undefined Reference
    pwr_mgmt_data0$$Limit                     - Undefined Reference
    pwr_mgmt_data1$$Base                      - Undefined Reference
    pwr_mgmt_data1$$Limit                     - Undefined Reference
    pwr_mgmt_data2$$Base                      - Undefined Reference
    pwr_mgmt_data2$$Limit                     - Undefined Reference
    __Vectors_End                            0x00000200   Data           0  arm_startup_nrf52.o(RESET)
    __Vectors_Size                           0x00000200   Number         0  arm_startup_nrf52.o ABSOLUTE
    __main                                   0x00000201   Thumb Code     0  entry.o(.ARM.Collect$$$$00000000)
    _main_stk                                0x00000201   Thumb Code     0  entry2.o(.ARM.Collect$$$$00000001)
    _main_scatterload                        0x00000205   Thumb Code     0  entry5.o(.ARM.Collect$$$$00000004)
    __main_after_scatterload                 0x00000209   Thumb Code     0  entry5.o(.ARM.Collect$$$$00000004)
    __rt_final_cpp                           0x00000209   Thumb Code     0  entry10a.o(.ARM.Collect$$$$0000000D)
    __rt_final_exit                          0x00000209   Thumb Code     0  entry11a.o(.ARM.Collect$$$$0000000F)
    _main_clock                              0x00000209   Thumb Code     0  entry7b.o(.ARM.Collect$$$$00000008)
    _main_cpp_init                           0x00000209   Thumb Code     0  entry8b.o(.ARM.Collect$$$$0000000A)
    _main_init                               0x00000209   Thumb Code    18  rtx_conf_cm.o(.ARM.Collect$$$$000000FF)
    rt_set_PSP                               0x00000225   Thumb Code     6  hal_cm4.o(.emb_text)
    rt_get_PSP                               0x0000022b   Thumb Code     6  hal_cm4.o(.emb_text)
    os_set_env                               0x00000231   Thumb Code    24  hal_cm4.o(.emb_text)
    _alloc_box                               0x0000024d   Thumb Code    28  hal_cm4.o(.emb_text)
    _free_box                                0x0000026d   Thumb Code    28  hal_cm4.o(.emb_text)
    SVC_Handler                              0x0000028d   Thumb Code   168  hal_cm4.o(.emb_text)
    PendSV_Handler                           0x00000345   Thumb Code    96  hal_cm4.o(.emb_text)
    SysTick_Handler                          0x000003a9   Thumb Code     8  hal_cm4.o(.emb_text)
    OS_Tick_Handler                          0x000003b1   Thumb Code    12  hal_cm4.o(.emb_text)
    Reset_Handler                            0x000003bd   Thumb Code     8  arm_startup_nrf52.o(.text)
    NMI_Handler                              0x000003c5   Thumb Code     2  arm_startup_nrf52.o(.text)
    HardFault_Handler                        0x000003c7   Thumb Code     2  arm_startup_nrf52.o(.text)
    MemoryManagement_Handler                 0x000003c9   Thumb Code     2  arm_startup_nrf52.o(.text)
    BusFault_Handler                         0x000003cb   Thumb Code     2  arm_startup_nrf52.o(.text)
    UsageFault_Handler                       0x000003cd   Thumb Code     2  arm_startup_nrf52.o(.text)
    DebugMon_Handler                         0x000003d1   Thumb Code     2  arm_startup_nrf52.o(.text)
    CCM_AAR_IRQHandler                       0x000003d7   Thumb Code     0  arm_startup_nrf52.o(.text)
    COMP_LPCOMP_IRQHandler                   0x000003d7   Thumb Code     0  arm_startup_nrf52.o(.text)
    ECB_IRQHandler                           0x000003d7   Thumb Code     0  arm_startup_nrf52.o(.text)
    FPU_IRQHandler                           0x000003d7   Thumb Code     0  arm_startup_nrf52.o(.text)
    I2S_IRQHandler                           0x000003d7   Thumb Code     0  arm_startup_nrf52.o(.text)
    MWU_IRQHandler                           0x000003d7   Thumb Code     0  arm_startup_nrf52.o(.text)
    NFCT_IRQHandler                          0x000003d7   Thumb Code     0  arm_startup_nrf52.o(.text)
    PDM_IRQHandler                           0x000003d7   Thumb Code     0  arm_startup_nrf52.o(.text)
    POWER_CLOCK_IRQHandler                   0x000003d7   Thumb Code     0  arm_startup_nrf52.o(.text)
    PWM1_IRQHandler                          0x000003d7   Thumb Code     0  arm_startup_nrf52.o(.text)
    PWM2_IRQHandler                          0x000003d7   Thumb Code     0  arm_startup_nrf52.o(.text)
    QDEC_IRQHandler                          0x000003d7   Thumb Code     0  arm_startup_nrf52.o(.text)
    RADIO_IRQHandler                         0x000003d7   Thumb Code     0  arm_startup_nrf52.o(.text)
    RNG_IRQHandler                           0x000003d7   Thumb Code     0  arm_startup_nrf52.o(.text)
    RTC0_IRQHandler                          0x000003d7   Thumb Code     0  arm_startup_nrf52.o(.text)
    RTC1_IRQHandler                          0x000003d7   Thumb Code     0  arm_startup_nrf52.o(.text)
    RTC2_IRQHandler                          0x000003d7   Thumb Code     0  arm_startup_nrf52.o(.text)
    SWI0_EGU0_IRQHandler                     0x000003d7   Thumb Code     0  arm_startup_nrf52.o(.text)
    SWI1_EGU1_IRQHandler                     0x000003d7   Thumb Code     0  arm_startup_nrf52.o(.text)
    SWI2_EGU2_IRQHandler                     0x000003d7   Thumb Code     0  arm_startup_nrf52.o(.text)
    SWI3_EGU3_IRQHandler                     0x000003d7   Thumb Code     0  arm_startup_nrf52.o(.text)
    SWI4_EGU4_IRQHandler                     0x000003d7   Thumb Code     0  arm_startup_nrf52.o(.text)
    SWI5_EGU5_IRQHandler                     0x000003d7   Thumb Code     0  arm_startup_nrf52.o(.text)
    TEMP_IRQHandler                          0x000003d7   Thumb Code     0  arm_startup_nrf52.o(.text)
    TIMER2_IRQHandler                        0x000003d7   Thumb Code     0  arm_startup_nrf52.o(.text)
    TIMER3_IRQHandler                        0x000003d7   Thumb Code     0  arm_startup_nrf52.o(.text)
    TIMER4_IRQHandler                        0x000003d7   Thumb Code     0  arm_startup_nrf52.o(.text)
    WDT_IRQHandler                           0x000003d7   Thumb Code     0  arm_startup_nrf52.o(.text)
    __aeabi_uldivmod                         0x000003e1   Thumb Code    98  uldiv.o(.text)
    __aeabi_llsr                             0x00000443   Thumb Code    32  llushr.o(.text)
    _ll_ushift_r                             0x00000443   Thumb Code     0  llushr.o(.text)
    __aeabi_memcpy                           0x00000463   Thumb Code    36  memcpya.o(.text)
    __aeabi_memcpy4                          0x00000463   Thumb Code     0  memcpya.o(.text)
    __aeabi_memcpy8                          0x00000463   Thumb Code     0  memcpya.o(.text)
    __RL_RTX_VER                             0x00000482   Number         0  rt_system.o ABSOLUTE
    __aeabi_memset                           0x00000487   Thumb Code    14  memseta.o(.text)
    __aeabi_memset4                          0x00000487   Thumb Code     0  memseta.o(.text)
    __aeabi_memset8                          0x00000487   Thumb Code     0  memseta.o(.text)
    __aeabi_memclr                           0x00000495   Thumb Code     4  memseta.o(.text)
    __aeabi_memclr4                          0x00000495   Thumb Code     0  memseta.o(.text)
    __aeabi_memclr8                          0x00000495   Thumb Code     0  memseta.o(.text)
    _memset$wrapper                          0x00000499   Thumb Code    18  memseta.o(.text)
    strlen                                   0x000004ab   Thumb Code    14  strlen.o(.text)
    __aeabi_dadd                             0x000004b9   Thumb Code   322  dadd.o(.text)
    __aeabi_dsub                             0x000005fb   Thumb Code     6  dadd.o(.text)
    __aeabi_drsub                            0x00000601   Thumb Code     6  dadd.o(.text)
    __aeabi_dmul                             0x00000607   Thumb Code   228  dmul.o(.text)
    __aeabi_ddiv                             0x000006eb   Thumb Code   222  ddiv.o(.text)
    __aeabi_i2d                              0x000007c9   Thumb Code    34  dflti.o(.text)
    __aeabi_d2iz                             0x000007eb   Thumb Code    62  dfixi.o(.text)
    __aeabi_f2d                              0x00000829   Thumb Code    38  f2d.o(.text)
    __aeabi_d2f                              0x0000084f   Thumb Code    56  d2f.o(.text)
    __aeabi_uidiv                            0x00000887   Thumb Code     0  uidiv.o(.text)
    __aeabi_uidivmod                         0x00000887   Thumb Code    44  uidiv.o(.text)
    __aeabi_llsl                             0x000008b3   Thumb Code    30  llshl.o(.text)
    _ll_shift_l                              0x000008b3   Thumb Code     0  llshl.o(.text)
    __aeabi_lasr                             0x000008d1   Thumb Code    36  llsshr.o(.text)
    _ll_sshift_r                             0x000008d1   Thumb Code     0  llsshr.o(.text)
    __I$use$fp                               0x000008f5   Thumb Code     0  iusefp.o(.text)
    _float_round                             0x000008f5   Thumb Code    18  fepilogue.o(.text)
    _float_epilogue                          0x00000907   Thumb Code    92  fepilogue.o(.text)
    _double_round                            0x00000963   Thumb Code    30  depilogue.o(.text)
    _double_epilogue                         0x00000981   Thumb Code   156  depilogue.o(.text)
    __aeabi_d2ulz                            0x00000a1d   Thumb Code    48  dfixul.o(.text)
    __aeabi_cdrcmple                         0x00000a4d   Thumb Code    48  cdrcmple.o(.text)
    __scatterload                            0x00000a7d   Thumb Code    28  init.o(.text)
    __scatterload_rt2                        0x00000a7d   Thumb Code     0  init.o(.text)
    _dsqrt                                   0x00000aa1   Thumb Code   162  dsqrt.o(.text)
    __aeabi_ui2d                             0x00000b43   Thumb Code    26  dfltui.o(.text)
    arm_pid_init_f32                         0x00000b5d   Thumb Code    58  arm_pid_init_f32.o(.text.arm_pid_init_f32)
    SVC_Count                                0x00000b98   Data           4  svc_table.o(SVC_TABLE)
    GPIOTE_IRQHandler                        0x00000b9d   Thumb Code   528  nrfx_gpiote.o(i.GPIOTE_IRQHandler)
    SVC_Table                                0x00000b9c   Data           0  svc_table.o(SVC_TABLE)
    Mpu_6050_thread                          0x00000db9   Thumb Code   870  mpu6050.o(i.Mpu_6050_thread)
    PID_control                              0x00001155   Thumb Code   552  mpu6050.o(i.PID_control)
    PWM                                      0x00001395   Thumb Code   330  mpu6050.o(i.PWM)
    PWM0_IRQHandler                          0x000014f9   Thumb Code    12  nrfx_pwm.o(i.PWM0_IRQHandler)
    PWM_init                                 0x0000150d   Thumb Code    34  mpu6050.o(i.PWM_init)
    PrintServer                              0x0000153d   Thumb Code    54  print_server.o(i.PrintServer)
    PrintServerInit                          0x0000157d   Thumb Code    70  print_server.o(i.PrintServerInit)
    PrintServerPrintf                        0x000015dd   Thumb Code    54  print_server.o(i.PrintServerPrintf)
    SAADC_INIT                               0x00001619   Thumb Code    16  curr_saadc.o(i.SAADC_INIT)
    SAADC_IRQHandler                         0x00001629   Thumb Code   456  nrfx_saadc.o(i.SAADC_IRQHandler)
    SPIM0_SPIS0_TWIM0_TWIS0_SPI0_TWI0_IRQHandler 0x000017f5   Thumb Code    12  nrfx_spis.o(i.SPIM0_SPIS0_TWIM0_TWIS0_SPI0_TWI0_IRQHandler)
    SPIM1_SPIS1_TWIM1_TWIS1_SPI1_TWI1_IRQHandler 0x00001809   Thumb Code    14  nrfx_twi.o(i.SPIM1_SPIS1_TWIM1_TWIS1_SPI1_TWI1_IRQHandler)
    SPIM2_SPIS2_SPI2_IRQHandler              0x0000181d   Thumb Code    12  nrfx_spis.o(i.SPIM2_SPIS2_SPI2_IRQHandler)
    Saadc_Callback                           0x00001831   Thumb Code   180  curr_saadc.o(i.Saadc_Callback)
    SpiSlave                                 0x00001901   Thumb Code    90  spi.o(i.SpiSlave)
    SpisEventHandler                         0x00001971   Thumb Code    96  spi.o(i.SpisEventHandler)
    SpisInit                                 0x000019e5   Thumb Code   124  spi.o(i.SpisInit)
    SystemCoreClockUpdate                    0x00001ab1   Thumb Code     8  system_nrf52.o(i.SystemCoreClockUpdate)
    SystemInit                               0x00001ac1   Thumb Code   596  system_nrf52.o(i.SystemInit)
    TIMER0_IRQHandler                        0x00001d59   Thumb Code    14  nrfx_timer.o(i.TIMER0_IRQHandler)
    TIMER1_IRQHandler                        0x00001d71   Thumb Code    24  timer.o(i.TIMER1_IRQHandler)
    TimerInit                                0x00001d91   Thumb Code   116  timer.o(i.TimerInit)
    TimerIntervalMicrosec                    0x00001e21   Thumb Code   148  timer.o(i.TimerIntervalMicrosec)
    TimerSecondsMicrosec                     0x00001ebd   Thumb Code    36  timer.o(i.TimerSecondsMicrosec)
    UARTE0_UART0_IRQHandler                  0x00001eed   Thumb Code    12  nrfx_uart.o(i.UARTE0_UART0_IRQHandler)
    __0vsnprintf                             0x00001f01   Thumb Code    40  printfa.o(i.__0vsnprintf)
    __1vsnprintf                             0x00001f01   Thumb Code     0  printfa.o(i.__0vsnprintf)
    __2vsnprintf                             0x00001f01   Thumb Code     0  printfa.o(i.__0vsnprintf)
    __c89vsnprintf                           0x00001f01   Thumb Code     0  printfa.o(i.__0vsnprintf)
    vsnprintf                                0x00001f01   Thumb Code     0  printfa.o(i.__0vsnprintf)
    __ARM_fpclassify                         0x00001f2d   Thumb Code    48  fpclassify.o(i.__ARM_fpclassify)
    __hardfp_asin                            0x00001f61   Thumb Code   770  asin.o(i.__hardfp_asin)
    __hardfp_sin                             0x000022c1   Thumb Code   180  sin.o(i.__hardfp_sin)
    __ieee754_rem_pio2                       0x00002389   Thumb Code   938  rred.o(i.__ieee754_rem_pio2)
    __kernel_cos                             0x000027c1   Thumb Code   322  cos_i.o(i.__kernel_cos)
    __kernel_poly                            0x00002931   Thumb Code   248  poly.o(i.__kernel_poly)
    __kernel_sin                             0x00002a29   Thumb Code   280  sin_i.o(i.__kernel_sin)
    __mathlib_dbl_infnan                     0x00002b59   Thumb Code    20  dunder.o(i.__mathlib_dbl_infnan)
    __mathlib_dbl_invalid                    0x00002b71   Thumb Code    24  dunder.o(i.__mathlib_dbl_invalid)
    __mathlib_dbl_underflow                  0x00002b91   Thumb Code    24  dunder.o(i.__mathlib_dbl_underflow)
    __scatterload_copy                       0x00002bb1   Thumb Code    14  handlers.o(i.__scatterload_copy)
    __scatterload_null                       0x00002bbf   Thumb Code     2  handlers.o(i.__scatterload_null)
    __scatterload_zeroinit                   0x00002bc1   Thumb Code    14  handlers.o(i.__scatterload_zeroinit)
    __set_errno                              0x00002bd1   Thumb Code     6  errno.o(i.__set_errno)
    _init_box                                0x00002d61   Thumb Code    70  rt_membox.o(i._init_box)
    app_util_critical_region_enter           0x000034ed   Thumb Code    10  app_util_platform.o(i.app_util_critical_region_enter)
    app_util_critical_region_exit            0x000034f7   Thumb Code    10  app_util_platform.o(i.app_util_critical_region_exit)
    app_util_disable_irq                     0x00003501   Thumb Code    14  app_util_platform.o(i.app_util_disable_irq)
    app_util_enable_irq                      0x00003515   Thumb Code    20  app_util_platform.o(i.app_util_enable_irq)
    dbg_init                                 0x00003729   Thumb Code    34  hal_cm.o(i.dbg_init)
    dbg_task_notify                          0x00003759   Thumb Code    32  hal_cm.o(i.dbg_task_notify)
    dbg_task_switch                          0x00003779   Thumb Code    16  hal_cm.o(i.dbg_task_switch)
    fabs                                     0x00003a3d   Thumb Code    24  fabs.o(i.fabs)
    isrMessageGet                            0x00003c29   Thumb Code    42  rt_cmsis.o(i.isrMessageGet)
    isrMessagePut                            0x00003c53   Thumb Code    44  rt_cmsis.o(i.isrMessagePut)
    isrSignalSet                             0x00003c7f   Thumb Code    36  rt_cmsis.o(i.isrSignalSet)
    isr_evt_set                              0x00003ca5   Thumb Code    34  rt_event.o(i.isr_evt_set)
    isr_mbx_receive                          0x00003ccd   Thumb Code    86  rt_mailbox.o(i.isr_mbx_receive)
    isr_mbx_send                             0x00003d23   Thumb Code    14  rt_mailbox.o(i.isr_mbx_send)
    main                                     0x00003d31   Thumb Code    60  main.o(i.main)
    mpu_6050_I2C_register_read               0x00003d6d   Thumb Code    82  mpu6050.o(i.mpu_6050_I2C_register_read)
    mpu_6050_init                            0x00003dc5   Thumb Code   192  mpu6050.o(i.mpu_6050_init)
    mpu_6050_read_acc                        0x00003ed1   Thumb Code    94  mpu6050.o(i.mpu_6050_read_acc)
    mpu_6050_read_gyro                       0x00003f51   Thumb Code   106  mpu6050.o(i.mpu_6050_read_gyro)
    nrf_drv_ppi_init                         0x00004009   Thumb Code    22  nrf_drv_ppi.o(i.nrf_drv_ppi_init)
    nrf_drv_spis_init                        0x00004025   Thumb Code    34  nrf_drv_spis.o(i.nrf_drv_spis_init)
    nrf_drv_twi_init                         0x00004051   Thumb Code    68  nrf_drv_twi.o(i.nrf_drv_twi_init)
    nrfx_gpiote_in_event_enable              0x000044e9   Thumb Code   164  nrfx_gpiote.o(i.nrfx_gpiote_in_event_enable)
    nrfx_gpiote_in_init                      0x00004595   Thumb Code   232  nrfx_gpiote.o(i.nrfx_gpiote_in_init)
    nrfx_gpiote_init                         0x00004689   Thumb Code   170  nrfx_gpiote.o(i.nrfx_gpiote_init)
    nrfx_ppi_channel_alloc                   0x00004755   Thumb Code   100  nrfx_ppi.o(i.nrfx_ppi_channel_alloc)
    nrfx_ppi_channel_assign                  0x000047c1   Thumb Code    68  nrfx_ppi.o(i.nrfx_ppi_channel_assign)
    nrfx_ppi_channel_enable                  0x00004809   Thumb Code    56  nrfx_ppi.o(i.nrfx_ppi_channel_enable)
    nrfx_pwm_init                            0x0000484d   Thumb Code   256  nrfx_pwm.o(i.nrfx_pwm_init)
    nrfx_pwm_simple_playback                 0x00004959   Thumb Code   128  nrfx_pwm.o(i.nrfx_pwm_simple_playback)
    nrfx_saadc_buffer_convert                0x000049dd   Thumb Code   186  nrfx_saadc.o(i.nrfx_saadc_buffer_convert)
    nrfx_saadc_channel_init                  0x00004a9d   Thumb Code   208  nrfx_saadc.o(i.nrfx_saadc_channel_init)
    nrfx_saadc_init                          0x00004b75   Thumb Code   224  nrfx_saadc.o(i.nrfx_saadc_init)
    nrfx_saadc_sample_task_get               0x00004c65   Thumb Code    24  nrfx_saadc.o(i.nrfx_saadc_sample_task_get)
    nrfx_spis_buffers_set                    0x00004c85   Thumb Code   162  nrfx_spis.o(i.nrfx_spis_buffers_set)
    nrfx_spis_init                           0x00004d2d   Thumb Code   478  nrfx_spis.o(i.nrfx_spis_init)
    nrfx_timer_compare                       0x00004f21   Thumb Code    72  nrfx_timer.o(i.nrfx_timer_compare)
    nrfx_timer_enable                        0x00004f69   Thumb Code    30  nrfx_timer.o(i.nrfx_timer_enable)
    nrfx_timer_extended_compare              0x00004f8d   Thumb Code    66  nrfx_timer.o(i.nrfx_timer_extended_compare)
    nrfx_timer_init                          0x00004fd1   Thumb Code   230  nrfx_timer.o(i.nrfx_timer_init)
    nrfx_twi_enable                          0x000050c5   Thumb Code    34  nrfx_twi.o(i.nrfx_twi_enable)
    nrfx_twi_init                            0x000050ed   Thumb Code   242  nrfx_twi.o(i.nrfx_twi_init)
    nrfx_twi_rx                              0x000051ed   Thumb Code    44  nrfx_twi.o(i.nrfx_twi_rx)
    nrfx_twi_tx                              0x0000521d   Thumb Code    62  nrfx_twi.o(i.nrfx_twi_tx)
    nrfx_twi_xfer                            0x0000525d   Thumb Code    44  nrfx_twi.o(i.nrfx_twi_xfer)
    nrfx_uart_init                           0x0000528d   Thumb Code   104  nrfx_uart.o(i.nrfx_uart_init)
    nrfx_uart_tx                             0x000052f9   Thumb Code   134  nrfx_uart.o(i.nrfx_uart_tx)
    nrfx_uart_tx_in_progress                 0x00005385   Thumb Code    30  nrfx_uart.o(i.nrfx_uart_tx_in_progress)
    osDelay                                  0x000053a9   Thumb Code    18  rt_cmsis.o(i.osDelay)
    osKernelInitialize                       0x000053c1   Thumb Code    30  rt_cmsis.o(i.osKernelInitialize)
    osKernelStart                            0x000053e5   Thumb Code    98  rt_cmsis.o(i.osKernelStart)
    osMailAlloc                              0x00005451   Thumb Code    22  rt_cmsis.o(i.osMailAlloc)
    osMailCreate                             0x0000546d   Thumb Code    36  rt_cmsis.o(i.osMailCreate)
    osMailFree                               0x00005499   Thumb Code    22  rt_cmsis.o(i.osMailFree)
    osMailGet                                0x000054b5   Thumb Code    22  rt_cmsis.o(i.osMailGet)
    osMailPut                                0x000054cb   Thumb Code    20  rt_cmsis.o(i.osMailPut)
    osMessageGet                             0x000054e1   Thumb Code    18  rt_cmsis.o(i.osMessageGet)
    osMessagePut                             0x000054f9   Thumb Code    18  rt_cmsis.o(i.osMessagePut)
    osSignalSet                              0x00005511   Thumb Code    18  rt_cmsis.o(i.osSignalSet)
    osSignalWait                             0x00005529   Thumb Code    18  rt_cmsis.o(i.osSignalWait)
    osThreadCreate                           0x00005541   Thumb Code    36  rt_cmsis.o(i.osThreadCreate)
    osThreadExit                             0x0000556d   Thumb Code    14  rt_cmsis.o(i.osThreadExit)
    osTimerCall                              0x00005585   Thumb Code     8  rt_cmsis.o(i.osTimerCall)
    osTimerThread                            0x00005591   Thumb Code    38  rt_cmsis.o(i.osTimerThread)
    os_error                                 0x000055bd   Thumb Code    34  rtx_conf_cm.o(i.os_error)
    os_idle_demon                            0x000055df   Thumb Code     4  rtx_conf_cm.o(i.os_idle_demon)
    os_tick_init                             0x000055e5   Thumb Code    32  rt_system.o(i.os_tick_init)
    os_tick_irqack                           0x0000560d   Thumb Code     2  rt_system.o(i.os_tick_irqack)
    rt_alloc_box                             0x00005685   Thumb Code    26  rt_membox.o(i.rt_alloc_box)
    rt_alloc_mem                             0x0000569f   Thumb Code    62  rt_memory.o(i.rt_alloc_mem)
    rt_block                                 0x000056dd   Thumb Code    48  rt_task.o(i.rt_block)
    rt_chk_robin                             0x00005715   Thumb Code    60  rt_robin.o(i.rt_chk_robin)
    rt_dec_dly                               0x0000575d   Thumb Code   102  rt_list.o(i.rt_dec_dly)
    rt_dispatch                              0x000057cd   Thumb Code    60  rt_task.o(i.rt_dispatch)
    rt_dly_wait                              0x00005811   Thumb Code     6  rt_time.o(i.rt_dly_wait)
    rt_evt_psh                               0x00005819   Thumb Code    76  rt_event.o(i.rt_evt_psh)
    rt_evt_set                               0x00005869   Thumb Code    88  rt_event.o(i.rt_evt_set)
    rt_evt_wait                              0x000058c5   Thumb Code    56  rt_event.o(i.rt_evt_wait)
    rt_free_box                              0x00005901   Thumb Code    44  rt_membox.o(i.rt_free_box)
    rt_free_mem                              0x0000592d   Thumb Code    40  rt_memory.o(i.rt_free_mem)
    rt_get_first                             0x00005955   Thumb Code    40  rt_list.o(i.rt_get_first)
    rt_init_mem                              0x000059cd   Thumb Code    26  rt_memory.o(i.rt_init_mem)
    rt_init_robin                            0x000059e9   Thumb Code    14  rt_robin.o(i.rt_init_robin)
    rt_init_stack                            0x00005a01   Thumb Code   118  hal_cm.o(i.rt_init_stack)
    rt_mbx_check                             0x00005a81   Thumb Code     8  rt_mailbox.o(i.rt_mbx_check)
    rt_mbx_init                              0x00005a89   Thumb Code    26  rt_mailbox.o(i.rt_mbx_init)
    rt_mbx_psh                               0x00005aa5   Thumb Code   236  rt_mailbox.o(i.rt_mbx_psh)
    rt_mbx_send                              0x00005b95   Thumb Code   148  rt_mailbox.o(i.rt_mbx_send)
    rt_mbx_wait                              0x00005c2d   Thumb Code   174  rt_mailbox.o(i.rt_mbx_wait)
    rt_pop_req                               0x00005d25   Thumb Code   112  rt_system.o(i.rt_pop_req)
    rt_psh_req                               0x00005da1   Thumb Code    22  rt_system.o(i.rt_psh_req)
    rt_psq_enq                               0x00005dc1   Thumb Code    88  rt_list.o(i.rt_psq_enq)
    rt_put_dly                               0x00005e1d   Thumb Code    68  rt_list.o(i.rt_put_dly)
    rt_put_prio                              0x00005e65   Thumb Code    54  rt_list.o(i.rt_put_prio)
    rt_put_rdy_first                         0x00005e9d   Thumb Code    14  rt_list.o(i.rt_put_rdy_first)
    rt_resort_prio                           0x00005eb1   Thumb Code    46  rt_list.o(i.rt_resort_prio)
    rt_ret_val                               0x00005ef5   Thumb Code    12  hal_cm.o(i.rt_ret_val)
    rt_ret_val2                              0x00005f01   Thumb Code    16  hal_cm.o(i.rt_ret_val2)
    rt_rmv_dly                               0x00005f11   Thumb Code    40  rt_list.o(i.rt_rmv_dly)
    rt_rmv_list                              0x00005f39   Thumb Code    44  rt_list.o(i.rt_rmv_list)
    rt_sem_psh                               0x00005f69   Thumb Code    48  rt_semaphore.o(i.rt_sem_psh)
    rt_stk_check                             0x00005f9d   Thumb Code    28  rt_system.o(i.rt_stk_check)
    rt_switch_req                            0x00005fc1   Thumb Code    30  rt_task.o(i.rt_switch_req)
    rt_sys_init                              0x00005fe9   Thumb Code   138  rt_task.o(i.rt_sys_init)
    rt_sys_start                             0x000060b5   Thumb Code   110  rt_task.o(i.rt_sys_start)
    rt_systick                               0x0000612d   Thumb Code    50  rt_system.o(i.rt_systick)
    rt_tsk_create                            0x000061b5   Thumb Code   118  rt_task.o(i.rt_tsk_create)
    rt_tsk_delete                            0x0000623d   Thumb Code   352  rt_task.o(i.rt_tsk_delete)
    rt_tsk_prio                              0x000063b9   Thumb Code   108  rt_task.o(i.rt_tsk_prio)
    rt_tsk_self                              0x00006435   Thumb Code    12  rt_task.o(i.rt_tsk_self)
    saadc_init                               0x000064a1   Thumb Code   148  curr_saadc.o(i.saadc_init)
    saadc_sampling_event_enable              0x00006545   Thumb Code    12  curr_saadc.o(i.saadc_sampling_event_enable)
    saadc_sampling_event_init                0x00006555   Thumb Code   152  curr_saadc.o(i.saadc_sampling_event_init)
    sqrt                                     0x00006707   Thumb Code   110  sqrt.o(i.sqrt)
    svcDelay                                 0x000067df   Thumb Code    18  rt_cmsis.o(i.svcDelay)
    svcKernelInitialize                      0x000067f1   Thumb Code    80  rt_cmsis.o(i.svcKernelInitialize)
    svcKernelStart                           0x00006861   Thumb Code    62  rt_cmsis.o(i.svcKernelStart)
    svcMailCreate                            0x000068a9   Thumb Code    66  rt_cmsis.o(i.svcMailCreate)
    svcMessageCreate                         0x000068eb   Thumb Code    36  rt_cmsis.o(i.svcMessageCreate)
    svcMessageGet                            0x0000690f   Thumb Code    58  rt_cmsis.o(i.svcMessageGet)
    svcMessagePut                            0x00006949   Thumb Code    54  rt_cmsis.o(i.svcMessagePut)
    svcSignalSet                             0x0000697f   Thumb Code    36  rt_cmsis.o(i.svcSignalSet)
    svcSignalWait                            0x000069a5   Thumb Code    80  rt_cmsis.o(i.svcSignalWait)
    svcThreadCreate                          0x000069f9   Thumb Code    96  rt_cmsis.o(i.svcThreadCreate)
    svcThreadGetId                           0x00006a65   Thumb Code    22  rt_cmsis.o(i.svcThreadGetId)
    svcThreadTerminate                       0x00006a81   Thumb Code    50  rt_cmsis.o(i.svcThreadTerminate)
    svcTimerCall                             0x00006ab9   Thumb Code    24  rt_cmsis.o(i.svcTimerCall)
    sysMailAlloc                             0x00006ad1   Thumb Code    84  rt_cmsis.o(i.sysMailAlloc)
    sysMailFree                              0x00006b29   Thumb Code    96  rt_cmsis.o(i.sysMailFree)
    sysTimerTick                             0x00006b89   Thumb Code    84  rt_cmsis.o(i.sysTimerTick)
    timer_handler                            0x00006be5   Thumb Code     2  curr_saadc.o(i.timer_handler)
    twi_init_mpu6050                         0x00006cc9   Thumb Code    34  mpu6050.o(i.twi_init_mpu6050)
    os_mailQ_def_mail_queue                  0x00007404   Data          12  print_server.o(.constdata)
    os_thread_def_PrintServer                0x00007410   Data          16  print_server.o(.constdata)
    rad_to_deg                               0x00007450   Data           4  mpu6050.o(.constdata)
    deg_to_rad                               0x00007454   Data           4  mpu6050.o(.constdata)
    os_mailQ_def_PID_PWM_mail_Q              0x00007458   Data          12  mpu6050.o(.constdata)
    os_mailQ_def_MPU_PID_mail_Q              0x00007464   Data          12  mpu6050.o(.constdata)
    os_mailQ_def_MPU_PWM_mail_Q              0x00007470   Data          12  mpu6050.o(.constdata)
    os_mailQ_def_PWM_CURRSAADC_mail_Q        0x0000747c   Data          12  mpu6050.o(.constdata)
    os_thread_def_Mpu_6050_thread            0x00007498   Data          16  mpu6050.o(.constdata)
    os_thread_def_PID_control                0x000074a8   Data          16  mpu6050.o(.constdata)
    os_thread_def_PWM                        0x000074b8   Data          16  mpu6050.o(.constdata)
    os_thread_def_SpiSlave                   0x00007530   Data          16  spi.o(.constdata)
    os_mailQ_def_spis_mail_Q                 0x00007540   Data          12  spi.o(.constdata)
    os_mailQ_def_SPIS_PID_mail_Q             0x0000754c   Data          12  spi.o(.constdata)
    os_maxtaskrun                            0x00007620   Data           2  rtx_conf_cm.o(.constdata)
    os_stackinfo                             0x00007624   Data           4  rtx_conf_cm.o(.constdata)
    os_rrobin                                0x00007628   Data           4  rtx_conf_cm.o(.constdata)
    os_tickfreq                              0x0000762c   Data           4  rtx_conf_cm.o(.constdata)
    os_tickus_i                              0x00007630   Data           2  rtx_conf_cm.o(.constdata)
    os_tickus_f                              0x00007632   Data           2  rtx_conf_cm.o(.constdata)
    os_trv                                   0x00007634   Data           4  rtx_conf_cm.o(.constdata)
    os_flags                                 0x00007638   Data           1  rtx_conf_cm.o(.constdata)
    CMSIS_RTOS_API_Version                   0x0000763c   Data           4  rtx_conf_cm.o(.constdata)
    CMSIS_RTOS_RTX_Version                   0x00007640   Data           4  rtx_conf_cm.o(.constdata)
    os_clockrate                             0x00007644   Data           4  rtx_conf_cm.o(.constdata)
    os_timernum                              0x00007648   Data           4  rtx_conf_cm.o(.constdata)
    mp_tcb_size                              0x0000764c   Data           2  rtx_conf_cm.o(.constdata)
    mp_stk_size                              0x00007650   Data           4  rtx_conf_cm.o(.constdata)
    os_stack_sz                              0x00007654   Data           4  rtx_conf_cm.o(.constdata)
    os_fifo_size                             0x00007658   Data           1  rtx_conf_cm.o(.constdata)
    os_thread_def_osTimerThread              0x0000765c   Data          16  rtx_conf_cm.o(.constdata)
    os_messageQ_def_osTimerMessageQ          0x0000766c   Data           8  rtx_conf_cm.o(.constdata)
    mp_tmr_size                              0x00007674   Data           2  rtx_conf_cm.o(.constdata)
    os_thread_def_main                       0x00007678   Data          16  rtx_conf_cm.o(.constdata)
    Region$$Table$$Base                      0x000077f8   Number         0  anon$$obj.o(Region$$Table)
    Region$$Table$$Limit                     0x00007818   Number         0  anon$$obj.o(Region$$Table)
    mail_box_id                              0x20000000   Data           4  print_server.o(.data)
    os_mailQ_p_mail_queue                    0x20000004   Data           8  print_server.o(.data)
    PrintServer_id                           0x2000000c   Data           4  print_server.o(.data)
    PWM_output                               0x20000028   Data           8  mpu6050.o(.data)
    Acc_error_x                              0x20000030   Data           4  mpu6050.o(.data)
    Acc_error_y                              0x20000034   Data           4  mpu6050.o(.data)
    Acc_error_z                              0x20000038   Data           4  mpu6050.o(.data)
    Gyro_raw_error_x                         0x2000003c   Data           4  mpu6050.o(.data)
    Gyro_raw_error_y                         0x20000040   Data           4  mpu6050.o(.data)
    Gyro_raw_error_z                         0x20000044   Data           4  mpu6050.o(.data)
    PID_PWM_mail_id                          0x20000048   Data           4  mpu6050.o(.data)
    os_mailQ_p_PID_PWM_mail_Q                0x2000004c   Data           8  mpu6050.o(.data)
    MPU_PID_mail_id                          0x20000054   Data           4  mpu6050.o(.data)
    os_mailQ_p_MPU_PID_mail_Q                0x20000058   Data           8  mpu6050.o(.data)
    MPU_PWM_mail_id                          0x20000060   Data           4  mpu6050.o(.data)
    os_mailQ_p_MPU_PWM_mail_Q                0x20000064   Data           8  mpu6050.o(.data)
    PWM_CURRSAADC_mail_id                    0x2000006c   Data           4  mpu6050.o(.data)
    os_mailQ_p_PWM_CURRSAADC_mail_Q          0x20000070   Data           8  mpu6050.o(.data)
    Mpu_6050_id                              0x20000078   Data           4  mpu6050.o(.data)
    PID_id                                   0x2000007c   Data           4  mpu6050.o(.data)
    PWM_thread_id                            0x20000080   Data           4  mpu6050.o(.data)
    state                                    0x20000088   Data           1  curr_saadc.o(.data)
    var                                      0x2000008a   Data           8  curr_saadc.o(.data)
    spis_thread_id                           0x200000a0   Data           4  spi.o(.data)
    os_mailQ_p_spis_mail_Q                   0x200000a4   Data           8  spi.o(.data)
    spis_mail_ID                             0x200000ac   Data           4  spi.o(.data)
    os_mailQ_p_SPIS_PID_mail_Q               0x200000b0   Data           8  spi.o(.data)
    SPIS_PID_mail_ID                         0x200000b8   Data           4  spi.o(.data)
    osThreadId_osTimerThread                 0x200000e4   Data           4  rtx_conf_cm.o(.data)
    osMessageQId_osTimerMessageQ             0x200000e8   Data           4  rtx_conf_cm.o(.data)
    os_tmr                                   0x200000ec   Data           4  rtx_conf_cm.o(.data)
    m_tmr                                    0x200000f0   Data           4  rtx_conf_cm.o(.data)
    SystemCoreClock                          0x200000f4   Data           4  system_nrf52.o(.data)
    os_initialized                           0x200000f8   Data           1  rt_cmsis.o(.data)
    os_running                               0x200000f9   Data           1  rt_cmsis.o(.data)
    os_timer_head                            0x200000fc   Data           4  rt_cmsis.o(.data)
    os_tsk                                   0x20000100   Data           8  rt_task.o(.data)
    os_tick_irqn                             0x2000010c   Data           4  rt_system.o(.data)
    os_time                                  0x20000110   Data           4  rt_time.o(.data)
    dbg_msg                                  0x20000114   Data           1  hal_cm.o(.data)
    os_robin                                 0x20000118   Data           8  rt_robin.o(.data)
    os_mailQ_q_mail_queue                    0x20000124   Data         272  print_server.o(.bss)
    os_mailQ_m_mail_queue                    0x20000234   Data        4108  print_server.o(.bss)
    os_mailQ_q_PID_PWM_mail_Q                0x20001240   Data          48  mpu6050.o(.bss)
    os_mailQ_m_PID_PWM_mail_Q                0x20001270   Data          76  mpu6050.o(.bss)
    os_mailQ_q_MPU_PID_mail_Q                0x200012bc   Data          48  mpu6050.o(.bss)
    os_mailQ_m_MPU_PID_mail_Q                0x200012ec   Data          76  mpu6050.o(.bss)
    os_mailQ_q_MPU_PWM_mail_Q                0x20001338   Data          48  mpu6050.o(.bss)
    os_mailQ_m_MPU_PWM_mail_Q                0x20001368   Data          76  mpu6050.o(.bss)
    os_mailQ_q_PWM_CURRSAADC_mail_Q          0x200013b4   Data          48  mpu6050.o(.bss)
    os_mailQ_m_PWM_CURRSAADC_mail_Q          0x200013e4   Data         140  mpu6050.o(.bss)
    os_mailQ_q_spis_mail_Q                   0x20001498   Data          48  spi.o(.bss)
    os_mailQ_m_spis_mail_Q                   0x200014c8   Data         204  spi.o(.bss)
    os_mailQ_q_SPIS_PID_mail_Q               0x20001594   Data          48  spi.o(.bss)
    os_mailQ_m_SPIS_PID_mail_Q               0x200015c4   Data          44  spi.o(.bss)
    mp_tcb                                   0x20001728   Data         376  rtx_conf_cm.o(.bss)
    mp_stk                                   0x200018a0   Data        6160  rtx_conf_cm.o(.bss)
    os_stack_mem                             0x200030b0   Data        2280  rtx_conf_cm.o(.bss)
    os_fifo                                  0x20003998   Data         132  rtx_conf_cm.o(.bss)
    os_active_TCB                            0x20003a1c   Data          28  rtx_conf_cm.o(.bss)
    os_messageQ_q_osTimerMessageQ            0x20003a38   Data          32  rtx_conf_cm.o(.bss)
    os_idle_TCB                              0x20003a58   Data          52  rt_task.o(.bss)
    os_rdy                                   0x20003a8c   Data          24  rt_list.o(.bss)
    os_dly                                   0x20003aa4   Data          24  rt_list.o(.bss)
    __initial_sp                             0x20005ac0   Data           0  arm_startup_nrf52.o(STACK)



==============================================================================

Memory Map of the image

  Image Entry point : 0x000003bd

  Load Region LR_1 (Base: 0x00000000, Size: 0x0000793c, Max: 0xffffffff, ABSOLUTE)

    Execution Region ER_RO (Exec base: 0x00000000, Load base: 0x00000000, Size: 0x00007818, Max: 0xffffffff, ABSOLUTE)

    Exec Addr    Load Addr    Size         Type   Attr      Idx    E Section Name        Object

    0x00000000   0x00000000   0x00000200   Data   RO         3119    RESET               arm_startup_nrf52.o
    0x00000200   0x00000200   0x00000000   Code   RO         4468  * .ARM.Collect$$$$00000000  mc_w.l(entry.o)
    0x00000200   0x00000200   0x00000004   Code   RO         4603    .ARM.Collect$$$$00000001  mc_w.l(entry2.o)
    0x00000204   0x00000204   0x00000004   Code   RO         4606    .ARM.Collect$$$$00000004  mc_w.l(entry5.o)
    0x00000208   0x00000208   0x00000000   Code   RO         4608    .ARM.Collect$$$$00000008  mc_w.l(entry7b.o)
    0x00000208   0x00000208   0x00000000   Code   RO         4610    .ARM.Collect$$$$0000000A  mc_w.l(entry8b.o)
    0x00000208   0x00000208   0x00000000   Code   RO         4611    .ARM.Collect$$$$0000000D  mc_w.l(entry10a.o)
    0x00000208   0x00000208   0x00000000   Code   RO         4613    .ARM.Collect$$$$0000000F  mc_w.l(entry11a.o)
    0x00000208   0x00000208   0x00000018   Code   RO         3082    .ARM.Collect$$$$000000FF  rtx_conf_cm.o
    0x00000220   0x00000220   0x00000004   Code   RO         4604    .ARM.Collect$$$$00002712  mc_w.l(entry2.o)
    0x00000224   0x00000224   0x00000198   Code   RO         4429    .emb_text           RTX_CM4.lib(hal_cm4.o)
    0x000003bc   0x000003bc   0x00000024   Code   RO         3120  * .text               arm_startup_nrf52.o
    0x000003e0   0x000003e0   0x00000062   Code   RO         4471    .text               mc_w.l(uldiv.o)
    0x00000442   0x00000442   0x00000020   Code   RO         4473    .text               mc_w.l(llushr.o)
    0x00000462   0x00000462   0x00000024   Code   RO         4475    .text               mc_w.l(memcpya.o)
    0x00000486   0x00000486   0x00000024   Code   RO         4477    .text               mc_w.l(memseta.o)
    0x000004aa   0x000004aa   0x0000000e   Code   RO         4479    .text               mc_w.l(strlen.o)
    0x000004b8   0x000004b8   0x0000014e   Code   RO         4539    .text               mf_w.l(dadd.o)
    0x00000606   0x00000606   0x000000e4   Code   RO         4541    .text               mf_w.l(dmul.o)
    0x000006ea   0x000006ea   0x000000de   Code   RO         4543    .text               mf_w.l(ddiv.o)
    0x000007c8   0x000007c8   0x00000022   Code   RO         4545    .text               mf_w.l(dflti.o)
    0x000007ea   0x000007ea   0x0000003e   Code   RO         4547    .text               mf_w.l(dfixi.o)
    0x00000828   0x00000828   0x00000026   Code   RO         4549    .text               mf_w.l(f2d.o)
    0x0000084e   0x0000084e   0x00000038   Code   RO         4551    .text               mf_w.l(d2f.o)
    0x00000886   0x00000886   0x0000002c   Code   RO         4618    .text               mc_w.l(uidiv.o)
    0x000008b2   0x000008b2   0x0000001e   Code   RO         4620    .text               mc_w.l(llshl.o)
    0x000008d0   0x000008d0   0x00000024   Code   RO         4622    .text               mc_w.l(llsshr.o)
    0x000008f4   0x000008f4   0x00000000   Code   RO         4633    .text               mc_w.l(iusefp.o)
    0x000008f4   0x000008f4   0x0000006e   Code   RO         4634    .text               mf_w.l(fepilogue.o)
    0x00000962   0x00000962   0x000000ba   Code   RO         4636    .text               mf_w.l(depilogue.o)
    0x00000a1c   0x00000a1c   0x00000030   Code   RO         4640    .text               mf_w.l(dfixul.o)
    0x00000a4c   0x00000a4c   0x00000030   Code   RO         4642    .text               mf_w.l(cdrcmple.o)
    0x00000a7c   0x00000a7c   0x00000024   Code   RO         4644    .text               mc_w.l(init.o)
    0x00000aa0   0x00000aa0   0x000000a2   Code   RO         4648    .text               mf_w.l(dsqrt.o)
    0x00000b42   0x00000b42   0x0000001a   Code   RO         4650    .text               mf_w.l(dfltui.o)
    0x00000b5c   0x00000b5c   0x0000003a   Code   RO         3220    .text.arm_pid_init_f32  arm_cortexM4lf_math.lib(arm_pid_init_f32.o)
    0x00000b96   0x00000b96   0x00000002   PAD
    0x00000b98   0x00000b98   0x00000004   Code   RO         4439    SVC_TABLE           RTX_CM4.lib(svc_table.o)
    0x00000b9c   0x00000b9c   0x0000021c   Code   RO         1293    i.GPIOTE_IRQHandler  nrfx_gpiote.o
    0x00000db8   0x00000db8   0x0000039c   Code   RO          285    i.Mpu_6050_thread   mpu6050.o
    0x00001154   0x00001154   0x00000240   Code   RO          286    i.PID_control       mpu6050.o
    0x00001394   0x00001394   0x00000164   Code   RO          287    i.PWM               mpu6050.o
    0x000014f8   0x000014f8   0x00000014   Code   RO         2954    i.PWM0_IRQHandler   nrfx_pwm.o
    0x0000150c   0x0000150c   0x00000030   Code   RO          288    i.PWM_init          mpu6050.o
    0x0000153c   0x0000153c   0x00000040   Code   RO          222    i.PrintServer       print_server.o
    0x0000157c   0x0000157c   0x00000060   Code   RO          223    i.PrintServerInit   print_server.o
    0x000015dc   0x000015dc   0x0000003c   Code   RO          224    i.PrintServerPrintf  print_server.o
    0x00001618   0x00001618   0x00000010   Code   RO          489    i.SAADC_INIT        curr_saadc.o
    0x00001628   0x00001628   0x000001cc   Code   RO         1997    i.SAADC_IRQHandler  nrfx_saadc.o
    0x000017f4   0x000017f4   0x00000014   Code   RO         2785    i.SPIM0_SPIS0_TWIM0_TWIS0_SPI0_TWI0_IRQHandler  nrfx_spis.o
    0x00001808   0x00001808   0x00000014   Code   RO         2477    i.SPIM1_SPIS1_TWIM1_TWIS1_SPI1_TWI1_IRQHandler  nrfx_twi.o
    0x0000181c   0x0000181c   0x00000014   Code   RO         2786    i.SPIM2_SPIS2_SPI2_IRQHandler  nrfx_spis.o
    0x00001830   0x00001830   0x000000d0   Code   RO          490    i.Saadc_Callback    curr_saadc.o
    0x00001900   0x00001900   0x00000070   Code   RO          681    i.SpiSlave          spi.o
    0x00001970   0x00001970   0x00000074   Code   RO          682    i.SpisEventHandler  spi.o
    0x000019e4   0x000019e4   0x000000cc   Code   RO          683    i.SpisInit          spi.o
    0x00001ab0   0x00001ab0   0x00000010   Code   RO         3127    i.SystemCoreClockUpdate  system_nrf52.o
    0x00001ac0   0x00001ac0   0x00000298   Code   RO         3128    i.SystemInit        system_nrf52.o
    0x00001d58   0x00001d58   0x00000018   Code   RO         2154    i.TIMER0_IRQHandler  nrfx_timer.o
    0x00001d70   0x00001d70   0x00000020   Code   RO          428    i.TIMER1_IRQHandler  timer.o
    0x00001d90   0x00001d90   0x00000090   Code   RO          429    i.TimerInit         timer.o
    0x00001e20   0x00001e20   0x0000009c   Code   RO          430    i.TimerIntervalMicrosec  timer.o
    0x00001ebc   0x00001ebc   0x00000030   Code   RO          432    i.TimerSecondsMicrosec  timer.o
    0x00001eec   0x00001eec   0x00000014   Code   RO         1041    i.UARTE0_UART0_IRQHandler  nrfx_uart.o
    0x00001f00   0x00001f00   0x0000002c   Code   RO         4489    i.__0vsnprintf      mc_w.l(printfa.o)
    0x00001f2c   0x00001f2c   0x00000030   Code   RO         4576    i.__ARM_fpclassify  m_wm.l(fpclassify.o)
    0x00001f5c   0x00001f5c   0x00000004   PAD
    0x00001f60   0x00001f60   0x00000360   Code   RO         4442    i.__hardfp_asin     m_wm.l(asin.o)
    0x000022c0   0x000022c0   0x000000c8   Code   RO         4456    i.__hardfp_sin      m_wm.l(sin.o)
    0x00002388   0x00002388   0x00000438   Code   RO         4580    i.__ieee754_rem_pio2  m_wm.l(rred.o)
    0x000027c0   0x000027c0   0x00000170   Code   RO         4553    i.__kernel_cos      m_wm.l(cos_i.o)
    0x00002930   0x00002930   0x000000f8   Code   RO         4578    i.__kernel_poly     m_wm.l(poly.o)
    0x00002a28   0x00002a28   0x00000130   Code   RO         4585    i.__kernel_sin      m_wm.l(sin_i.o)
    0x00002b58   0x00002b58   0x00000014   Code   RO         4557    i.__mathlib_dbl_infnan  m_wm.l(dunder.o)
    0x00002b6c   0x00002b6c   0x00000004   PAD
    0x00002b70   0x00002b70   0x00000020   Code   RO         4559    i.__mathlib_dbl_invalid  m_wm.l(dunder.o)
    0x00002b90   0x00002b90   0x00000020   Code   RO         4562    i.__mathlib_dbl_underflow  m_wm.l(dunder.o)
    0x00002bb0   0x00002bb0   0x0000000e   Code   RO         4656    i.__scatterload_copy  mc_w.l(handlers.o)
    0x00002bbe   0x00002bbe   0x00000002   Code   RO         4657    i.__scatterload_null  mc_w.l(handlers.o)
    0x00002bc0   0x00002bc0   0x0000000e   Code   RO         4658    i.__scatterload_zeroinit  mc_w.l(handlers.o)
    0x00002bce   0x00002bce   0x00000002   PAD
    0x00002bd0   0x00002bd0   0x0000000c   Code   RO         4628    i.__set_errno       mc_w.l(errno.o)
    0x00002bdc   0x00002bdc   0x00000184   Code   RO         4491    i._fp_digits        mc_w.l(printfa.o)
    0x00002d60   0x00002d60   0x00000046   Code   RO         4302    i._init_box         RTX_CM4.lib(rt_membox.o)
    0x00002da6   0x00002da6   0x00000002   PAD
    0x00002da8   0x00002da8   0x000006dc   Code   RO         4492    i._printf_core      mc_w.l(printfa.o)
    0x00003484   0x00003484   0x00000024   Code   RO         4493    i._printf_post_padding  mc_w.l(printfa.o)
    0x000034a8   0x000034a8   0x0000002e   Code   RO         4494    i._printf_pre_padding  mc_w.l(printfa.o)
    0x000034d6   0x000034d6   0x00000016   Code   RO         4495    i._snputc           mc_w.l(printfa.o)
    0x000034ec   0x000034ec   0x0000000a   Code   RO          978    i.app_util_critical_region_enter  app_util_platform.o
    0x000034f6   0x000034f6   0x0000000a   Code   RO          979    i.app_util_critical_region_exit  app_util_platform.o
    0x00003500   0x00003500   0x00000014   Code   RO          980    i.app_util_disable_irq  app_util_platform.o
    0x00003514   0x00003514   0x00000018   Code   RO          981    i.app_util_enable_irq  app_util_platform.o
    0x0000352c   0x0000352c   0x0000007c   Code   RO         1042    i.apply_config      nrfx_uart.o
    0x000035a8   0x000035a8   0x00000020   Code   RO         1294    i.channel_free      nrfx_gpiote.o
    0x000035c8   0x000035c8   0x00000010   Code   RO         1295    i.channel_handler_get  nrfx_gpiote.o
    0x000035d8   0x000035d8   0x00000080   Code   RO         1296    i.channel_port_alloc  nrfx_gpiote.o
    0x00003658   0x00003658   0x0000000c   Code   RO         1297    i.channel_port_get  nrfx_gpiote.o
    0x00003664   0x00003664   0x000000c2   Code   RO         2955    i.configure_pins    nrfx_pwm.o
    0x00003726   0x00003726   0x00000002   Code   RO         2787    i.csn_event_handler  nrfx_spis.o
    0x00003728   0x00003728   0x00000030   Code   RO         4355    i.dbg_init          RTX_CM4.lib(hal_cm.o)
    0x00003758   0x00003758   0x00000020   Code   RO         4356    i.dbg_task_notify   RTX_CM4.lib(hal_cm.o)
    0x00003778   0x00003778   0x00000010   Code   RO         4357    i.dbg_task_switch   RTX_CM4.lib(hal_cm.o)
    0x00003788   0x00003788   0x00000054   Code   RO         3129    i.errata_108        system_nrf52.o
    0x000037dc   0x000037dc   0x00000054   Code   RO         3130    i.errata_12         system_nrf52.o
    0x00003830   0x00003830   0x00000054   Code   RO         3131    i.errata_136        system_nrf52.o
    0x00003884   0x00003884   0x00000030   Code   RO         3132    i.errata_16         system_nrf52.o
    0x000038b4   0x000038b4   0x00000020   Code   RO         3133    i.errata_182        system_nrf52.o
    0x000038d4   0x000038d4   0x00000054   Code   RO         3134    i.errata_31         system_nrf52.o
    0x00003928   0x00003928   0x00000030   Code   RO         3135    i.errata_32         system_nrf52.o
    0x00003958   0x00003958   0x00000054   Code   RO         3136    i.errata_36         system_nrf52.o
    0x000039ac   0x000039ac   0x00000030   Code   RO         3137    i.errata_37         system_nrf52.o
    0x000039dc   0x000039dc   0x00000030   Code   RO         3138    i.errata_57         system_nrf52.o
    0x00003a0c   0x00003a0c   0x00000030   Code   RO         3139    i.errata_66         system_nrf52.o
    0x00003a3c   0x00003a3c   0x00000018   Code   RO         4572    i.fabs              m_wm.l(fabs.o)
    0x00003a54   0x00003a54   0x0000008c   Code   RO         1044    i.interrupts_enable  nrfx_uart.o
    0x00003ae0   0x00003ae0   0x0000005c   Code   RO         2155    i.irq_handler       nrfx_timer.o
    0x00003b3c   0x00003b3c   0x000000a4   Code   RO         2956    i.irq_handler       nrfx_pwm.o
    0x00003be0   0x00003be0   0x00000020   Code   RO         1826    i.is_allocated_channel  nrfx_ppi.o
    0x00003c00   0x00003c00   0x00000010   Code   RO         1828    i.is_app_channel    nrfx_ppi.o
    0x00003c10   0x00003c10   0x00000018   Code   RO         1830    i.is_programmable_app_channel  nrfx_ppi.o
    0x00003c28   0x00003c28   0x0000002a   Code   RO         3232    i.isrMessageGet     RTX_CM4.lib(rt_cmsis.o)
    0x00003c52   0x00003c52   0x0000002c   Code   RO         3233    i.isrMessagePut     RTX_CM4.lib(rt_cmsis.o)
    0x00003c7e   0x00003c7e   0x00000024   Code   RO         3235    i.isrSignalSet      RTX_CM4.lib(rt_cmsis.o)
    0x00003ca2   0x00003ca2   0x00000002   PAD
    0x00003ca4   0x00003ca4   0x00000028   Code   RO         4026    i.isr_evt_set       RTX_CM4.lib(rt_event.o)
    0x00003ccc   0x00003ccc   0x00000056   Code   RO         4148    i.isr_mbx_receive   RTX_CM4.lib(rt_mailbox.o)
    0x00003d22   0x00003d22   0x0000000e   Code   RO         4149    i.isr_mbx_send      RTX_CM4.lib(rt_mailbox.o)
    0x00003d30   0x00003d30   0x0000003c   Code   RO            4    i.main              main.o
    0x00003d6c   0x00003d6c   0x00000058   Code   RO          290    i.mpu_6050_I2C_register_read  mpu6050.o
    0x00003dc4   0x00003dc4   0x0000010c   Code   RO          292    i.mpu_6050_init     mpu6050.o
    0x00003ed0   0x00003ed0   0x00000080   Code   RO          293    i.mpu_6050_read_acc  mpu6050.o
    0x00003f50   0x00003f50   0x0000008c   Code   RO          294    i.mpu_6050_read_gyro  mpu6050.o
    0x00003fdc   0x00003fdc   0x00000016   Code   RO         1298    i.nrf_bitmask_bit_is_set  nrfx_gpiote.o
    0x00003ff2   0x00003ff2   0x00000016   Code   RO         1299    i.nrf_bitmask_bit_set  nrfx_gpiote.o
    0x00004008   0x00004008   0x0000001c   Code   RO         1607    i.nrf_drv_ppi_init  nrf_drv_ppi.o
    0x00004024   0x00004024   0x0000002c   Code   RO         2754    i.nrf_drv_spis_init  nrf_drv_spis.o
    0x00004050   0x00004050   0x00000050   Code   RO         2685    i.nrf_drv_twi_init  nrf_drv_twi.o
    0x000040a0   0x000040a0   0x0000002c   Code   RO          295    i.nrf_drv_twi_tx    mpu6050.o
    0x000040cc   0x000040cc   0x00000028   Code   RO         1045    i.nrf_gpio_cfg      nrfx_uart.o
    0x000040f4   0x000040f4   0x00000028   Code   RO         1300    i.nrf_gpio_cfg      nrfx_gpiote.o
    0x0000411c   0x0000411c   0x00000028   Code   RO         2478    i.nrf_gpio_cfg      nrfx_twi.o
    0x00004144   0x00004144   0x00000028   Code   RO         2788    i.nrf_gpio_cfg      nrfx_spis.o
    0x0000416c   0x0000416c   0x0000001a   Code   RO         1047    i.nrf_gpio_cfg_input  nrfx_uart.o
    0x00004186   0x00004186   0x00000018   Code   RO         1048    i.nrf_gpio_cfg_output  nrfx_uart.o
    0x0000419e   0x0000419e   0x00000032   Code   RO         1302    i.nrf_gpio_cfg_sense_set  nrfx_gpiote.o
    0x000041d0   0x000041d0   0x00000016   Code   RO         2686    i.nrf_gpio_pin_clear  nrf_drv_twi.o
    0x000041e6   0x000041e6   0x00000018   Code   RO         1304    i.nrf_gpio_pin_read  nrfx_gpiote.o
    0x000041fe   0x000041fe   0x00000016   Code   RO         1049    i.nrf_gpio_pin_set  nrfx_uart.o
    0x00004214   0x00004214   0x00000016   Code   RO         2687    i.nrf_gpio_pin_set  nrf_drv_twi.o
    0x0000422a   0x0000422a   0x00000002   PAD
    0x0000422c   0x0000422c   0x00000028   Code   RO         1306    i.nrf_gpio_ports_read  nrfx_gpiote.o
    0x00004254   0x00004254   0x0000000c   Code   RO         1307    i.nrf_gpiote_event_addr_get  nrfx_gpiote.o
    0x00004260   0x00004260   0x0000001c   Code   RO         1308    i.nrf_gpiote_event_clear  nrfx_gpiote.o
    0x0000427c   0x0000427c   0x00000016   Code   RO         1309    i.nrf_gpiote_event_is_set  nrfx_gpiote.o
    0x00004292   0x00004292   0x00000002   PAD
    0x00004294   0x00004294   0x0000000c   Code   RO         1310    i.nrf_gpiote_int_enable  nrfx_gpiote.o
    0x000042a0   0x000042a0   0x0000000e   Code   RO         2957    i.nrf_pwm_event_check  nrfx_pwm.o
    0x000042ae   0x000042ae   0x0000000e   Code   RO         2958    i.nrf_pwm_event_clear  nrfx_pwm.o
    0x000042bc   0x000042bc   0x00000006   Code   RO         2959    i.nrf_pwm_int_set   nrfx_pwm.o
    0x000042c2   0x000042c2   0x00000006   Code   RO         2960    i.nrf_pwm_loop_set  nrfx_pwm.o
    0x000042c8   0x000042c8   0x0000003c   Code   RO         2961    i.nrf_pwm_sequence_set  nrfx_pwm.o
    0x00004304   0x00004304   0x00000006   Code   RO         2962    i.nrf_pwm_shorts_set  nrfx_pwm.o
    0x0000430a   0x0000430a   0x00000006   Code   RO         2963    i.nrf_pwm_task_trigger  nrfx_pwm.o
    0x00004310   0x00004310   0x00000010   Code   RO         1998    i.nrf_saadc_buffer_init  nrfx_saadc.o
    0x00004320   0x00004320   0x00000018   Code   RO         1999    i.nrf_saadc_channel_input_set  nrfx_saadc.o
    0x00004338   0x00004338   0x00000014   Code   RO         2000    i.nrf_saadc_event_check  nrfx_saadc.o
    0x0000434c   0x0000434c   0x00000018   Code   RO         2001    i.nrf_saadc_event_clear  nrfx_saadc.o
    0x00004364   0x00004364   0x0000000c   Code   RO         2002    i.nrf_saadc_int_disable  nrfx_saadc.o
    0x00004370   0x00004370   0x0000000c   Code   RO         2003    i.nrf_saadc_int_enable  nrfx_saadc.o
    0x0000437c   0x0000437c   0x0000000c   Code   RO         2005    i.nrf_saadc_task_trigger  nrfx_saadc.o
    0x00004388   0x00004388   0x0000000e   Code   RO         2789    i.nrf_spis_event_check  nrfx_spis.o
    0x00004396   0x00004396   0x0000000e   Code   RO         2790    i.nrf_spis_event_clear  nrfx_spis.o
    0x000043a4   0x000043a4   0x0000000c   Code   RO         2791    i.nrf_spis_rx_buffer_set  nrfx_spis.o
    0x000043b0   0x000043b0   0x00000006   Code   RO         2792    i.nrf_spis_task_trigger  nrfx_spis.o
    0x000043b6   0x000043b6   0x0000000c   Code   RO         2793    i.nrf_spis_tx_buffer_set  nrfx_spis.o
    0x000043c2   0x000043c2   0x0000000e   Code   RO         2156    i.nrf_timer_compare_event_get  nrfx_timer.o
    0x000043d0   0x000043d0   0x0000000a   Code   RO         2157    i.nrf_timer_compare_int_get  nrfx_timer.o
    0x000043da   0x000043da   0x0000000e   Code   RO         2158    i.nrf_timer_event_clear  nrfx_timer.o
    0x000043e8   0x000043e8   0x00000006   Code   RO         2159    i.nrf_timer_int_disable  nrfx_timer.o
    0x000043ee   0x000043ee   0x00000006   Code   RO         2160    i.nrf_timer_int_enable  nrfx_timer.o
    0x000043f4   0x000043f4   0x0000000c   Code   RO         2161    i.nrf_timer_shorts_disable  nrfx_timer.o
    0x00004400   0x00004400   0x00000006   Code   RO         2162    i.nrf_timer_task_trigger  nrfx_timer.o
    0x00004406   0x00004406   0x0000000c   Code   RO         2480    i.nrf_twi_errorsrc_get_and_clear  nrfx_twi.o
    0x00004412   0x00004412   0x0000000e   Code   RO         2481    i.nrf_twi_event_check  nrfx_twi.o
    0x00004420   0x00004420   0x0000000e   Code   RO         2482    i.nrf_twi_event_clear  nrfx_twi.o
    0x0000442e   0x0000442e   0x00000006   Code   RO         2483    i.nrf_twi_int_disable  nrfx_twi.o
    0x00004434   0x00004434   0x00000006   Code   RO         2484    i.nrf_twi_int_enable  nrfx_twi.o
    0x0000443a   0x0000443a   0x00000006   Code   RO         2485    i.nrf_twi_shorts_set  nrfx_twi.o
    0x00004440   0x00004440   0x00000006   Code   RO         2486    i.nrf_twi_task_trigger  nrfx_twi.o
    0x00004446   0x00004446   0x0000000c   Code   RO         1050    i.nrf_uart_errorsrc_get_and_clear  nrfx_uart.o
    0x00004452   0x00004452   0x0000000e   Code   RO         1051    i.nrf_uart_event_check  nrfx_uart.o
    0x00004460   0x00004460   0x0000000e   Code   RO         1052    i.nrf_uart_event_clear  nrfx_uart.o
    0x0000446e   0x0000446e   0x0000000a   Code   RO         1053    i.nrf_uart_hwfc_pins_set  nrfx_uart.o
    0x00004478   0x00004478   0x00000006   Code   RO         1054    i.nrf_uart_int_disable  nrfx_uart.o
    0x0000447e   0x0000447e   0x00000006   Code   RO         1055    i.nrf_uart_int_enable  nrfx_uart.o
    0x00004484   0x00004484   0x00000012   Code   RO         1056    i.nrf_uart_int_enable_check  nrfx_uart.o
    0x00004496   0x00004496   0x00000006   Code   RO         1057    i.nrf_uart_task_trigger  nrfx_uart.o
    0x0000449c   0x0000449c   0x0000000a   Code   RO         1058    i.nrf_uart_txrx_pins_set  nrfx_uart.o
    0x000044a6   0x000044a6   0x00000002   PAD
    0x000044a8   0x000044a8   0x00000018   Code   RO         2688    i.nrfx_coredep_delay_us  nrf_drv_twi.o
    0x000044c0   0x000044c0   0x00000008   Code   RO         1059    i.nrfx_get_irq_number  nrfx_uart.o
    0x000044c8   0x000044c8   0x00000008   Code   RO         2163    i.nrfx_get_irq_number  nrfx_timer.o
    0x000044d0   0x000044d0   0x00000008   Code   RO         2487    i.nrfx_get_irq_number  nrfx_twi.o
    0x000044d8   0x000044d8   0x00000008   Code   RO         2794    i.nrfx_get_irq_number  nrfx_spis.o
    0x000044e0   0x000044e0   0x00000008   Code   RO         2964    i.nrfx_get_irq_number  nrfx_pwm.o
    0x000044e8   0x000044e8   0x000000ac   Code   RO         1317    i.nrfx_gpiote_in_event_enable  nrfx_gpiote.o
    0x00004594   0x00004594   0x000000f4   Code   RO         1318    i.nrfx_gpiote_in_init  nrfx_gpiote.o
    0x00004688   0x00004688   0x000000b8   Code   RO         1321    i.nrfx_gpiote_init  nrfx_gpiote.o
    0x00004740   0x00004740   0x00000014   Code   RO         2795    i.nrfx_is_in_ram    nrfx_spis.o
    0x00004754   0x00004754   0x0000006c   Code   RO         1833    i.nrfx_ppi_channel_alloc  nrfx_ppi.o
    0x000047c0   0x000047c0   0x00000048   Code   RO         1834    i.nrfx_ppi_channel_assign  nrfx_ppi.o
    0x00004808   0x00004808   0x0000003c   Code   RO         1836    i.nrfx_ppi_channel_enable  nrfx_ppi.o
    0x00004844   0x00004844   0x00000008   Code   RO         1839    i.nrfx_ppi_channel_to_mask  nrfx_ppi.o
    0x0000484c   0x0000484c   0x0000010c   Code   RO         2966    i.nrfx_pwm_init     nrfx_pwm.o
    0x00004958   0x00004958   0x00000084   Code   RO         2968    i.nrfx_pwm_simple_playback  nrfx_pwm.o
    0x000049dc   0x000049dc   0x000000c0   Code   RO         2008    i.nrfx_saadc_buffer_convert  nrfx_saadc.o
    0x00004a9c   0x00004a9c   0x000000d8   Code   RO         2010    i.nrfx_saadc_channel_init  nrfx_saadc.o
    0x00004b74   0x00004b74   0x000000f0   Code   RO         2012    i.nrfx_saadc_init   nrfx_saadc.o
    0x00004c64   0x00004c64   0x00000020   Code   RO         2017    i.nrfx_saadc_sample_task_get  nrfx_saadc.o
    0x00004c84   0x00004c84   0x000000a8   Code   RO         2796    i.nrfx_spis_buffers_set  nrfx_spis.o
    0x00004d2c   0x00004d2c   0x000001f4   Code   RO         2797    i.nrfx_spis_init    nrfx_spis.o
    0x00004f20   0x00004f20   0x00000048   Code   RO         2166    i.nrfx_timer_compare  nrfx_timer.o
    0x00004f68   0x00004f68   0x00000024   Code   RO         2170    i.nrfx_timer_enable  nrfx_timer.o
    0x00004f8c   0x00004f8c   0x00000042   Code   RO         2171    i.nrfx_timer_extended_compare  nrfx_timer.o
    0x00004fce   0x00004fce   0x00000002   PAD
    0x00004fd0   0x00004fd0   0x000000f4   Code   RO         2173    i.nrfx_timer_init   nrfx_timer.o
    0x000050c4   0x000050c4   0x00000028   Code   RO         2490    i.nrfx_twi_enable   nrfx_twi.o
    0x000050ec   0x000050ec   0x00000100   Code   RO         2491    i.nrfx_twi_init     nrfx_twi.o
    0x000051ec   0x000051ec   0x00000030   Code   RO         2493    i.nrfx_twi_rx       nrfx_twi.o
    0x0000521c   0x0000521c   0x0000003e   Code   RO         2495    i.nrfx_twi_tx       nrfx_twi.o
    0x0000525a   0x0000525a   0x00000002   PAD
    0x0000525c   0x0000525c   0x00000030   Code   RO         2497    i.nrfx_twi_xfer     nrfx_twi.o
    0x0000528c   0x0000528c   0x0000006c   Code   RO         1061    i.nrfx_uart_init    nrfx_uart.o
    0x000052f8   0x000052f8   0x0000008c   Code   RO         1067    i.nrfx_uart_tx      nrfx_uart.o
    0x00005384   0x00005384   0x00000024   Code   RO         1069    i.nrfx_uart_tx_in_progress  nrfx_uart.o
    0x000053a8   0x000053a8   0x00000018   Code   RO         3236    i.osDelay           RTX_CM4.lib(rt_cmsis.o)
    0x000053c0   0x000053c0   0x00000024   Code   RO         3237    i.osKernelInitialize  RTX_CM4.lib(rt_cmsis.o)
    0x000053e4   0x000053e4   0x0000006c   Code   RO         3239    i.osKernelStart     RTX_CM4.lib(rt_cmsis.o)
    0x00005450   0x00005450   0x0000001c   Code   RO         3241    i.osMailAlloc       RTX_CM4.lib(rt_cmsis.o)
    0x0000546c   0x0000546c   0x0000002c   Code   RO         3243    i.osMailCreate      RTX_CM4.lib(rt_cmsis.o)
    0x00005498   0x00005498   0x0000001c   Code   RO         3244    i.osMailFree        RTX_CM4.lib(rt_cmsis.o)
    0x000054b4   0x000054b4   0x00000016   Code   RO         3245    i.osMailGet         RTX_CM4.lib(rt_cmsis.o)
    0x000054ca   0x000054ca   0x00000014   Code   RO         3246    i.osMailPut         RTX_CM4.lib(rt_cmsis.o)
    0x000054de   0x000054de   0x00000002   PAD
    0x000054e0   0x000054e0   0x00000018   Code   RO         3248    i.osMessageGet      RTX_CM4.lib(rt_cmsis.o)
    0x000054f8   0x000054f8   0x00000018   Code   RO         3249    i.osMessagePut      RTX_CM4.lib(rt_cmsis.o)
    0x00005510   0x00005510   0x00000018   Code   RO         3263    i.osSignalSet       RTX_CM4.lib(rt_cmsis.o)
    0x00005528   0x00005528   0x00000018   Code   RO         3264    i.osSignalWait      RTX_CM4.lib(rt_cmsis.o)
    0x00005540   0x00005540   0x0000002c   Code   RO         3265    i.osThreadCreate    RTX_CM4.lib(rt_cmsis.o)
    0x0000556c   0x0000556c   0x00000018   Code   RO         3266    i.osThreadExit      RTX_CM4.lib(rt_cmsis.o)
    0x00005584   0x00005584   0x0000000c   Code   RO         3272    i.osTimerCall       RTX_CM4.lib(rt_cmsis.o)
    0x00005590   0x00005590   0x0000002c   Code   RO         3277    i.osTimerThread     RTX_CM4.lib(rt_cmsis.o)
    0x000055bc   0x000055bc   0x00000022   Code   RO         3083    i.os_error          rtx_conf_cm.o
    0x000055de   0x000055de   0x00000004   Code   RO         3084    i.os_idle_demon     rtx_conf_cm.o
    0x000055e2   0x000055e2   0x00000002   PAD
    0x000055e4   0x000055e4   0x00000028   Code   RO         3936    i.os_tick_init      RTX_CM4.lib(rt_system.o)
    0x0000560c   0x0000560c   0x00000002   Code   RO         3937    i.os_tick_irqack    RTX_CM4.lib(rt_system.o)
    0x0000560e   0x0000560e   0x00000002   PAD
    0x00005610   0x00005610   0x00000014   Code   RO         1338    i.pin_configured_set  nrfx_gpiote.o
    0x00005624   0x00005624   0x0000001c   Code   RO         1339    i.pin_in_use_by_gpiote  nrfx_gpiote.o
    0x00005640   0x00005640   0x00000018   Code   RO         1340    i.pin_in_use_by_port  nrfx_gpiote.o
    0x00005658   0x00005658   0x00000020   Code   RO         1341    i.pin_in_use_by_te  nrfx_gpiote.o
    0x00005678   0x00005678   0x0000000c   Code   RO         1342    i.pin_in_use_clear  nrfx_gpiote.o
    0x00005684   0x00005684   0x0000001a   Code   RO         4303    i.rt_alloc_box      RTX_CM4.lib(rt_membox.o)
    0x0000569e   0x0000569e   0x0000003e   Code   RO         4331    i.rt_alloc_mem      RTX_CM4.lib(rt_memory.o)
    0x000056dc   0x000056dc   0x00000038   Code   RO         3851    i.rt_block          RTX_CM4.lib(rt_task.o)
    0x00005714   0x00005714   0x00000048   Code   RO         4408    i.rt_chk_robin      RTX_CM4.lib(rt_robin.o)
    0x0000575c   0x0000575c   0x00000070   Code   RO         4072    i.rt_dec_dly        RTX_CM4.lib(rt_list.o)
    0x000057cc   0x000057cc   0x00000044   Code   RO         3852    i.rt_dispatch       RTX_CM4.lib(rt_task.o)
    0x00005810   0x00005810   0x00000006   Code   RO         4238    i.rt_dly_wait       RTX_CM4.lib(rt_time.o)
    0x00005816   0x00005816   0x00000002   PAD
    0x00005818   0x00005818   0x00000050   Code   RO         4029    i.rt_evt_psh        RTX_CM4.lib(rt_event.o)
    0x00005868   0x00005868   0x0000005c   Code   RO         4030    i.rt_evt_set        RTX_CM4.lib(rt_event.o)
    0x000058c4   0x000058c4   0x0000003c   Code   RO         4031    i.rt_evt_wait       RTX_CM4.lib(rt_event.o)
    0x00005900   0x00005900   0x0000002c   Code   RO         4304    i.rt_free_box       RTX_CM4.lib(rt_membox.o)
    0x0000592c   0x0000592c   0x00000028   Code   RO         4332    i.rt_free_mem       RTX_CM4.lib(rt_memory.o)
    0x00005954   0x00005954   0x00000028   Code   RO         4073    i.rt_get_first      RTX_CM4.lib(rt_list.o)
    0x0000597c   0x0000597c   0x00000008   Code   RO         3282    i.rt_id2obj         RTX_CM4.lib(rt_cmsis.o)
    0x00005984   0x00005984   0x00000048   Code   RO         3853    i.rt_init_context   RTX_CM4.lib(rt_task.o)
    0x000059cc   0x000059cc   0x0000001a   Code   RO         4333    i.rt_init_mem       RTX_CM4.lib(rt_memory.o)
    0x000059e6   0x000059e6   0x00000002   PAD
    0x000059e8   0x000059e8   0x00000018   Code   RO         4409    i.rt_init_robin     RTX_CM4.lib(rt_robin.o)
    0x00005a00   0x00005a00   0x00000080   Code   RO         4358    i.rt_init_stack     RTX_CM4.lib(hal_cm.o)
    0x00005a80   0x00005a80   0x00000008   Code   RO         4150    i.rt_mbx_check      RTX_CM4.lib(rt_mailbox.o)
    0x00005a88   0x00005a88   0x0000001a   Code   RO         4151    i.rt_mbx_init       RTX_CM4.lib(rt_mailbox.o)
    0x00005aa2   0x00005aa2   0x00000002   PAD
    0x00005aa4   0x00005aa4   0x000000f0   Code   RO         4152    i.rt_mbx_psh        RTX_CM4.lib(rt_mailbox.o)
    0x00005b94   0x00005b94   0x00000098   Code   RO         4153    i.rt_mbx_send       RTX_CM4.lib(rt_mailbox.o)
    0x00005c2c   0x00005c2c   0x000000b4   Code   RO         4154    i.rt_mbx_wait       RTX_CM4.lib(rt_mailbox.o)
    0x00005ce0   0x00005ce0   0x00000044   Code   RO         3283    i.rt_ms2tick        RTX_CM4.lib(rt_cmsis.o)
    0x00005d24   0x00005d24   0x0000007c   Code   RO         3940    i.rt_pop_req        RTX_CM4.lib(rt_system.o)
    0x00005da0   0x00005da0   0x00000020   Code   RO         3941    i.rt_psh_req        RTX_CM4.lib(rt_system.o)
    0x00005dc0   0x00005dc0   0x0000005c   Code   RO         4075    i.rt_psq_enq        RTX_CM4.lib(rt_list.o)
    0x00005e1c   0x00005e1c   0x00000048   Code   RO         4076    i.rt_put_dly        RTX_CM4.lib(rt_list.o)
    0x00005e64   0x00005e64   0x00000036   Code   RO         4077    i.rt_put_prio       RTX_CM4.lib(rt_list.o)
    0x00005e9a   0x00005e9a   0x00000002   PAD
    0x00005e9c   0x00005e9c   0x00000014   Code   RO         4078    i.rt_put_rdy_first  RTX_CM4.lib(rt_list.o)
    0x00005eb0   0x00005eb0   0x00000034   Code   RO         4079    i.rt_resort_prio    RTX_CM4.lib(rt_list.o)
    0x00005ee4   0x00005ee4   0x00000010   Code   RO         4359    i.rt_ret_regs       RTX_CM4.lib(hal_cm.o)
    0x00005ef4   0x00005ef4   0x0000000c   Code   RO         4360    i.rt_ret_val        RTX_CM4.lib(hal_cm.o)
    0x00005f00   0x00005f00   0x00000010   Code   RO         4361    i.rt_ret_val2       RTX_CM4.lib(hal_cm.o)
    0x00005f10   0x00005f10   0x00000028   Code   RO         4080    i.rt_rmv_dly        RTX_CM4.lib(rt_list.o)
    0x00005f38   0x00005f38   0x00000030   Code   RO         4081    i.rt_rmv_list       RTX_CM4.lib(rt_list.o)
    0x00005f68   0x00005f68   0x00000034   Code   RO         4199    i.rt_sem_psh        RTX_CM4.lib(rt_semaphore.o)
    0x00005f9c   0x00005f9c   0x00000024   Code   RO         3943    i.rt_stk_check      RTX_CM4.lib(rt_system.o)
    0x00005fc0   0x00005fc0   0x00000028   Code   RO         3854    i.rt_switch_req     RTX_CM4.lib(rt_task.o)
    0x00005fe8   0x00005fe8   0x000000cc   Code   RO         3855    i.rt_sys_init       RTX_CM4.lib(rt_task.o)
    0x000060b4   0x000060b4   0x00000078   Code   RO         3856    i.rt_sys_start      RTX_CM4.lib(rt_task.o)
    0x0000612c   0x0000612c   0x00000040   Code   RO         3945    i.rt_systick        RTX_CM4.lib(rt_system.o)
    0x0000616c   0x0000616c   0x00000012   Code   RO         3284    i.rt_tid2ptcb       RTX_CM4.lib(rt_cmsis.o)
    0x0000617e   0x0000617e   0x00000002   PAD
    0x00006180   0x00006180   0x00000034   Code   RO         3285    i.rt_timer_insert   RTX_CM4.lib(rt_cmsis.o)
    0x000061b4   0x000061b4   0x00000088   Code   RO         3857    i.rt_tsk_create     RTX_CM4.lib(rt_task.o)
    0x0000623c   0x0000623c   0x0000017c   Code   RO         3858    i.rt_tsk_delete     RTX_CM4.lib(rt_task.o)
    0x000063b8   0x000063b8   0x0000007c   Code   RO         3860    i.rt_tsk_prio       RTX_CM4.lib(rt_task.o)
    0x00006434   0x00006434   0x00000010   Code   RO         3861    i.rt_tsk_self       RTX_CM4.lib(rt_task.o)
    0x00006444   0x00006444   0x0000003e   Code   RO         1072    i.rx_byte           nrfx_uart.o
    0x00006482   0x00006482   0x0000001c   Code   RO         1073    i.rx_done_event     nrfx_uart.o
    0x0000649e   0x0000649e   0x00000002   PAD
    0x000064a0   0x000064a0   0x000000a4   Code   RO          491    i.saadc_init        curr_saadc.o
    0x00006544   0x00006544   0x00000010   Code   RO          492    i.saadc_sampling_event_enable  curr_saadc.o
    0x00006554   0x00006554   0x000000a8   Code   RO          493    i.saadc_sampling_event_init  curr_saadc.o
    0x000065fc   0x000065fc   0x0000001c   Code   RO         2755    i.spis_event_handler  nrf_drv_spis.o
    0x00006618   0x00006618   0x0000007c   Code   RO         2799    i.spis_irq_handler  nrfx_spis.o
    0x00006694   0x00006694   0x00000014   Code   RO         2800    i.spis_state_change  nrfx_spis.o
    0x000066a8   0x000066a8   0x0000005e   Code   RO         2801    i.spis_state_entry_action_execute  nrfx_spis.o
    0x00006706   0x00006706   0x0000006e   Code   RO         4593    i.sqrt              m_wm.l(sqrt.o)
    0x00006774   0x00006774   0x0000006a   Code   RO         2971    i.start_playback    nrfx_pwm.o
    0x000067de   0x000067de   0x00000012   Code   RO         3287    i.svcDelay          RTX_CM4.lib(rt_cmsis.o)
    0x000067f0   0x000067f0   0x00000070   Code   RO         3288    i.svcKernelInitialize  RTX_CM4.lib(rt_cmsis.o)
    0x00006860   0x00006860   0x00000048   Code   RO         3290    i.svcKernelStart    RTX_CM4.lib(rt_cmsis.o)
    0x000068a8   0x000068a8   0x00000042   Code   RO         3292    i.svcMailCreate     RTX_CM4.lib(rt_cmsis.o)
    0x000068ea   0x000068ea   0x00000024   Code   RO         3293    i.svcMessageCreate  RTX_CM4.lib(rt_cmsis.o)
    0x0000690e   0x0000690e   0x0000003a   Code   RO         3294    i.svcMessageGet     RTX_CM4.lib(rt_cmsis.o)
    0x00006948   0x00006948   0x00000036   Code   RO         3295    i.svcMessagePut     RTX_CM4.lib(rt_cmsis.o)
    0x0000697e   0x0000697e   0x00000024   Code   RO         3306    i.svcSignalSet      RTX_CM4.lib(rt_cmsis.o)
    0x000069a2   0x000069a2   0x00000002   PAD
    0x000069a4   0x000069a4   0x00000054   Code   RO         3307    i.svcSignalWait     RTX_CM4.lib(rt_cmsis.o)
    0x000069f8   0x000069f8   0x0000006c   Code   RO         3308    i.svcThreadCreate   RTX_CM4.lib(rt_cmsis.o)
    0x00006a64   0x00006a64   0x0000001c   Code   RO         3309    i.svcThreadGetId    RTX_CM4.lib(rt_cmsis.o)
    0x00006a80   0x00006a80   0x00000038   Code   RO         3312    i.svcThreadTerminate  RTX_CM4.lib(rt_cmsis.o)
    0x00006ab8   0x00006ab8   0x00000018   Code   RO         3314    i.svcTimerCall      RTX_CM4.lib(rt_cmsis.o)
    0x00006ad0   0x00006ad0   0x00000058   Code   RO         3319    i.sysMailAlloc      RTX_CM4.lib(rt_cmsis.o)
    0x00006b28   0x00006b28   0x00000060   Code   RO         3320    i.sysMailFree       RTX_CM4.lib(rt_cmsis.o)
    0x00006b88   0x00006b88   0x0000005c   Code   RO         3323    i.sysTimerTick      RTX_CM4.lib(rt_cmsis.o)
    0x00006be4   0x00006be4   0x00000002   Code   RO          494    i.timer_handler     curr_saadc.o
    0x00006be6   0x00006be6   0x00000002   PAD
    0x00006be8   0x00006be8   0x00000098   Code   RO         2689    i.twi_clear_bus     nrf_drv_twi.o
    0x00006c80   0x00006c80   0x00000048   Code   RO         2690    i.twi_evt_handler   nrf_drv_twi.o
    0x00006cc8   0x00006cc8   0x0000002c   Code   RO          296    i.twi_init_mpu6050  mpu6050.o
    0x00006cf4   0x00006cf4   0x000000d6   Code   RO         2498    i.twi_irq_handler   nrfx_twi.o
    0x00006dca   0x00006dca   0x00000024   Code   RO         2499    i.twi_process_error  nrfx_twi.o
    0x00006dee   0x00006dee   0x0000004c   Code   RO         2500    i.twi_receive_byte  nrfx_twi.o
    0x00006e3a   0x00006e3a   0x00000002   PAD
    0x00006e3c   0x00006e3c   0x000000ec   Code   RO         2501    i.twi_rx_start_transfer  nrfx_twi.o
    0x00006f28   0x00006f28   0x00000048   Code   RO         2502    i.twi_send_byte     nrfx_twi.o
    0x00006f70   0x00006f70   0x00000126   Code   RO         2503    i.twi_transfer      nrfx_twi.o
    0x00007096   0x00007096   0x00000002   PAD
    0x00007098   0x00007098   0x000000f0   Code   RO         2504    i.twi_tx_start_transfer  nrfx_twi.o
    0x00007188   0x00007188   0x000000b4   Code   RO         2505    i.twi_xfer          nrfx_twi.o
    0x0000723c   0x0000723c   0x00000036   Code   RO         1075    i.tx_blocking       nrfx_uart.o
    0x00007272   0x00007272   0x00000026   Code   RO         1076    i.tx_byte           nrfx_uart.o
    0x00007298   0x00007298   0x00000020   Code   RO         1077    i.tx_done_event     nrfx_uart.o
    0x000072b8   0x000072b8   0x0000014c   Code   RO         1078    i.uart_irq_handler  nrfx_uart.o
    0x00007404   0x00007404   0x0000003c   Data   RO          226    .constdata          print_server.o
    0x00007440   0x00007440   0x000000a4   Data   RO          298    .constdata          mpu6050.o
    0x000074e4   0x000074e4   0x00000041   Data   RO          496    .constdata          curr_saadc.o
    0x00007525   0x00007525   0x00000003   PAD
    0x00007528   0x00007528   0x00000048   Data   RO          685    .constdata          spi.o
    0x00007570   0x00007570   0x0000003e   Data   RO         1344    .constdata          nrfx_gpiote.o
    0x000075ae   0x000075ae   0x00000002   PAD
    0x000075b0   0x000075b0   0x0000003c   Data   RO         2507    .constdata          nrfx_twi.o
    0x000075ec   0x000075ec   0x00000004   PAD
    0x000075f0   0x000075f0   0x00000006   Data   RO         2692    .constdata          nrf_drv_twi.o
    0x000075f6   0x000075f6   0x00000028   Data   RO         2803    .constdata          nrfx_spis.o
    0x0000761e   0x0000761e   0x00000002   PAD
    0x00007620   0x00007620   0x00000068   Data   RO         3086    .constdata          rtx_conf_cm.o
    0x00007688   0x00007688   0x00000050   Data   RO         4445    .constdata          m_wm.l(asin.o)
    0x000076d8   0x000076d8   0x00000030   Data   RO         4554    .constdata          m_wm.l(cos_i.o)
    0x00007708   0x00007708   0x000000c8   Data   RO         4582    .constdata          m_wm.l(rred.o)
    0x000077d0   0x000077d0   0x00000028   Data   RO         4586    .constdata          m_wm.l(sin_i.o)
    0x000077f8   0x000077f8   0x00000020   Data   RO         4654    Region$$Table       anon$$obj.o


    Execution Region ER_RW (Exec base: 0x20000000, Load base: 0x00007818, Size: 0x00000124, Max: 0xffffffff, ABSOLUTE)

    Exec Addr    Load Addr    Size         Type   Attr      Idx    E Section Name        Object

    0x20000000   0x00007818   0x00000018   Data   RW          227    .data               print_server.o
    0x20000018   0x00007830   0x0000006c   Data   RW          299    .data               mpu6050.o
    0x20000084   0x0000789c   0x00000004   Data   RW          433    .data               timer.o
    0x20000088   0x000078a0   0x0000000a   Data   RW          497    .data               curr_saadc.o
    0x20000092   0x000078aa   0x00000002   PAD
    0x20000094   0x000078ac   0x00000028   Data   RW          686    .data               spi.o
    0x200000bc   0x000078d4   0x00000004   Data   RW          984    .data               app_util_platform.o
    0x200000c0   0x000078d8   0x00000001   Data   RW         1609    .data               nrf_drv_ppi.o
    0x200000c1   0x000078d9   0x00000003   PAD
    0x200000c4   0x000078dc   0x00000005   Data   RW         1848    .data               nrfx_ppi.o
    0x200000c9   0x000078e1   0x00000003   PAD
    0x200000cc   0x000078e4   0x00000010   Data   RW         2693    .data               nrf_drv_twi.o
    0x200000dc   0x000078f4   0x00000008   Data   RW         2973    .data               nrfx_pwm.o
    0x200000e4   0x000078fc   0x00000010   Data   RW         3087    .data               rtx_conf_cm.o
    0x200000f4   0x0000790c   0x00000004   Data   RW         3140    .data               system_nrf52.o
    0x200000f8   0x00007910   0x00000008   Data   RW         3326    .data               RTX_CM4.lib(rt_cmsis.o)
    0x20000100   0x00007918   0x00000008   Data   RW         3863    .data               RTX_CM4.lib(rt_task.o)
    0x20000108   0x00007920   0x00000008   Data   RW         3948    .data               RTX_CM4.lib(rt_system.o)
    0x20000110   0x00007928   0x00000004   Data   RW         4242    .data               RTX_CM4.lib(rt_time.o)
    0x20000114   0x0000792c   0x00000001   Data   RW         4362    .data               RTX_CM4.lib(hal_cm.o)
    0x20000115   0x0000792d   0x00000003   PAD
    0x20000118   0x00007930   0x00000008   Data   RW         4410    .data               RTX_CM4.lib(rt_robin.o)
    0x20000120   0x00007938   0x00000004   Data   RW         4629    .data               mc_w.l(errno.o)


    Execution Region ER_ZI (Exec base: 0x20000124, Load base: 0x0000793c, Size: 0x0000599c, Max: 0xffffffff, ABSOLUTE)

    Exec Addr    Load Addr    Size         Type   Attr      Idx    E Section Name        Object

    0x20000124        -       0x0000111c   Zero   RW          225    .bss                print_server.o
    0x20001240        -       0x00000230   Zero   RW          297    .bss                mpu6050.o
    0x20001470        -       0x00000010   Zero   RW          495    .bss                curr_saadc.o
    0x20001480        -       0x00000170   Zero   RW          684    .bss                spi.o
    0x200015f0        -       0x0000002c   Zero   RW         1079    .bss                nrfx_uart.o
    0x2000161c        -       0x0000004c   Zero   RW         1343    .bss                nrfx_gpiote.o
    0x20001668        -       0x00000030   Zero   RW         2019    .bss                nrfx_saadc.o
    0x20001698        -       0x0000000c   Zero   RW         2178    .bss                nrfx_timer.o
    0x200016a4        -       0x0000003c   Zero   RW         2506    .bss                nrfx_twi.o
    0x200016e0        -       0x0000000c   Zero   RW         2756    .bss                nrf_drv_spis.o
    0x200016ec        -       0x00000038   Zero   RW         2802    .bss                nrfx_spis.o
    0x20001724   0x0000793c   0x00000004   PAD
    0x20001728        -       0x00002330   Zero   RW         3085    .bss                rtx_conf_cm.o
    0x20003a58        -       0x00000034   Zero   RW         3862    .bss                RTX_CM4.lib(rt_task.o)
    0x20003a8c        -       0x00000030   Zero   RW         4082    .bss                RTX_CM4.lib(rt_list.o)
    0x20003abc   0x0000793c   0x00000004   PAD
    0x20003ac0        -       0x00002000   Zero   RW         3117    STACK               arm_startup_nrf52.o


==============================================================================

Image component sizes


      Code (inc. data)   RO Data    RW Data    ZI Data      Debug   Object Name

        64         10          0          4          0       3434   app_util_platform.o
        36          8        512          0       8192        940   arm_startup_nrf52.o
       574         64         65         10         16      57013   curr_saadc.o
        60          0          0          0          0      82137   main.o
      2616        278        164        108        560      45845   mpu6050.o
        28          6          0          1          0        943   nrf_drv_ppi.o
        72         16          0          0         12       2308   nrf_drv_spis.o
       372         30          6         16          0      19531   nrf_drv_twi.o
      1716        110         62          0         76      36314   nrfx_gpiote.o
       320         22          0          5          0      11377   nrfx_ppi.o
      1004         24          0          8          0      23349   nrfx_pwm.o
      1260         80          0          0         48      19908   nrfx_saadc.o
      1074         44         40          0         56      31150   nrfx_spis.o
       610         30          0          0         12      18933   nrfx_timer.o
      1934         48         60          0         60      30473   nrfx_twi.o
      1330         36          0          0         44      64740   nrfx_uart.o
       220         42         60         24       4380       9177   print_server.o
        62          6        104         16       9008       8036   rtx_conf_cm.o
       432        122         72         40        368       5008   spi.o
      1372        142          0          4          0      38834   system_nrf52.o
       380         56          0          4          0      34002   timer.o

    ----------------------------------------------------------------------
     15556       1174       1188        248      22836     543452   Object Totals
         0          0         32          0          0          0   (incl. Generated)
        20          0         11          8          4          0   (incl. Padding)

    ----------------------------------------------------------------------

      Code (inc. data)   RO Data    RW Data    ZI Data      Debug   Library Member Name

       268         24          0          1          0       4524   hal_cm.o
       408         34          0          0          0        824   hal_cm4.o
      1826        190          0          8          0      46625   rt_cmsis.o
       272         18          0          0          0       2842   rt_event.o
       530         34          0          0         48       8685   rt_list.o
       706         14          0          0          0       5123   rt_mailbox.o
       140          0          0          0          0       2069   rt_membox.o
       128          0          0          0          0       2451   rt_memory.o
        96         22          0          8          0       1254   rt_robin.o
        52          4          0          0          0        621   rt_semaphore.o
       298         52          0          8          0       6511   rt_system.o
      1216        174          0          8         52      10129   rt_task.o
         6          0          0          4          0        700   rt_time.o
         4          4          0          0          0        208   svc_table.o
        58          0          0          0          0       1008   arm_pid_init_f32.o
       864         94         80          0          0        280   asin.o
       368         46         48          0          0        200   cos_i.o
        84         16          0          0          0        372   dunder.o
        24          0          0          0          0        124   fabs.o
        48          0          0          0          0        124   fpclassify.o
       248          0          0          0          0        152   poly.o
      1080        142        200          0          0        188   rred.o
       200         20          0          0          0        164   sin.o
       304         24         40          0          0        208   sin_i.o
       110          0          0          0          0        148   sqrt.o
         0          0          0          0          0          0   entry.o
         0          0          0          0          0          0   entry10a.o
         0          0          0          0          0          0   entry11a.o
         8          4          0          0          0          0   entry2.o
         4          0          0          0          0          0   entry5.o
         0          0          0          0          0          0   entry7b.o
         0          0          0          0          0          0   entry8b.o
        12          6          0          4          0         68   errno.o
        30          0          0          0          0          0   handlers.o
        36          8          0          0          0         68   init.o
         0          0          0          0          0          0   iusefp.o
        30          0          0          0          0         68   llshl.o
        36          0          0          0          0         68   llsshr.o
        32          0          0          0          0         68   llushr.o
        36          0          0          0          0         68   memcpya.o
        36          0          0          0          0        108   memseta.o
      2292         84          0          0          0        516   printfa.o
        14          0          0          0          0         68   strlen.o
        44          0          0          0          0         80   uidiv.o
        98          0          0          0          0         92   uldiv.o
        48          0          0          0          0         68   cdrcmple.o
        56          0          0          0          0         88   d2f.o
       334          0          0          0          0        148   dadd.o
       222          0          0          0          0        100   ddiv.o
       186          0          0          0          0        176   depilogue.o
        62          0          0          0          0         80   dfixi.o
        48          0          0          0          0         68   dfixul.o
        34          0          0          0          0         76   dflti.o
        26          0          0          0          0         76   dfltui.o
       228          0          0          0          0         96   dmul.o
       162          0          0          0          0        100   dsqrt.o
        38          0          0          0          0         68   f2d.o
       110          0          0          0          0        168   fepilogue.o

    ----------------------------------------------------------------------
     13632       1014        368         44        104      98118   Library Totals
        32          0          0          3          4          0   (incl. Padding)

    ----------------------------------------------------------------------

      Code (inc. data)   RO Data    RW Data    ZI Data      Debug   Library Name

      5950        570          0         37        100      92566   RTX_CM4.lib
        58          0          0          0          0       1008   arm_cortexM4lf_math.lib
      3330        342        368          0          0       1960   m_wm.l
      2708        102          0          4          0       1272   mc_w.l
      1554          0          0          0          0       1312   mf_w.l

    ----------------------------------------------------------------------
     13632       1014        368         44        104      98118   Library Totals

    ----------------------------------------------------------------------

==============================================================================


      Code (inc. data)   RO Data    RW Data    ZI Data      Debug   

     29188       2188       1556        292      22940     611822   Grand Totals
     29188       2188       1556        292      22940     611822   ELF Image Totals
     29188       2188       1556        292          0          0   ROM Totals

==============================================================================

    Total RO  Size (Code + RO Data)                30744 (  30.02kB)
    Total RW  Size (RW Data + ZI Data)             23232 (  22.69kB)
    Total ROM Size (Code + RO Data + RW Data)      31036 (  30.31kB)

==============================================================================

